     VMA      LMA     Size Align Out     In      Symbol
       0        0        0     1 PAGE_SIZE = 512
       0        0        0     1 STACK_MIN_SIZE = DEFINED ( stack_min_size ) ? stack_min_size : 1500
       0        0        0     1 END_STACK = ORIGIN ( SRAM ) + LENGTH ( SRAM )
c0de0000 c0de0000    2ad3d     8 .text
c0de0000 c0de0000        0     1         _text = .
c0de0000 c0de0000        0     1         _nvram_start = .
c0de0000 c0de0000        a     2         build/flex/obj/app/src/main.o:(.boot)
c0de0000 c0de0000        0     1                 $t.16
c0de0001 c0de0001        a     1                 main
c0de000a c0de000a        0     1         _code = .
c0de000c c0de000c       40     4         build/flex/obj/app/ethereum-plugin-sdk/src/common_utils.o:(.text.array_bytes_string)
c0de000c c0de000c        0     1                 $t.0
c0de000d c0de000d       40     1                 array_bytes_string
c0de0048 c0de0048        0     1                 $d.1
c0de004c c0de004c       28     2         build/flex/obj/app/ethereum-plugin-sdk/src/common_utils.o:(.text.u64_from_BE)
c0de004c c0de004c        0     1                 $t.2
c0de004d c0de004d       28     1                 u64_from_BE
c0de0074 c0de0074       70     2         build/flex/obj/app/ethereum-plugin-sdk/src/common_utils.o:(.text.u64_to_string)
c0de0074 c0de0074        0     1                 $t.3
c0de0075 c0de0075       70     1                 u64_to_string
c0de00e4 c0de00e4       cc     4         build/flex/obj/app/ethereum-plugin-sdk/src/common_utils.o:(.text.uint256_to_decimal)
c0de00e4 c0de00e4        0     1                 $t.4
c0de00e5 c0de00e5       cc     1                 uint256_to_decimal
c0de01ac c0de01ac        0     1                 $d.5
c0de01b0 c0de01b0       1c     2         build/flex/obj/app/ethereum-plugin-sdk/src/common_utils.o:(.text.allzeroes)
c0de01b0 c0de01b0        0     1                 $t.6
c0de01b1 c0de01b1       1c     1                 allzeroes
c0de01cc c0de01cc       da     2         build/flex/obj/app/ethereum-plugin-sdk/src/common_utils.o:(.text.adjustDecimals)
c0de01cc c0de01cc        0     1                 $t.7
c0de01cd c0de01cd       da     1                 adjustDecimals
c0de02a8 c0de02a8       90     4         build/flex/obj/app/ethereum-plugin-sdk/src/common_utils.o:(.text.amountToString)
c0de02a8 c0de02a8        0     1                 $t.8
c0de02a9 c0de02a9       90     1                 amountToString
c0de0334 c0de0334        0     1                 $d.9
c0de0338 c0de0338       2a     2         build/flex/obj/app/ethereum-plugin-sdk/src/common_utils.o:(.text.getEthAddressFromRawKey)
c0de0338 c0de0338        0     1                 $t.10
c0de0339 c0de0339       2a     1                 getEthAddressFromRawKey
c0de0362 c0de0362       10     2         build/flex/obj/app/ethereum-plugin-sdk/src/common_utils.o:(.text.cx_keccak_256_hash)
c0de0362 c0de0362        0     1                 $t.11
c0de0363 c0de0363       10     1                 cx_keccak_256_hash
c0de0372 c0de0372       30     2         build/flex/obj/app/ethereum-plugin-sdk/src/common_utils.o:(.text.getEthAddressStringFromRawKey)
c0de0372 c0de0372        0     1                 $t.12
c0de0373 c0de0373       30     1                 getEthAddressStringFromRawKey
c0de03a4 c0de03a4       dc     4         build/flex/obj/app/ethereum-plugin-sdk/src/common_utils.o:(.text.getEthAddressStringFromBinary)
c0de03a4 c0de03a4        0     1                 $t.13
c0de03a5 c0de03a5       dc     1                 getEthAddressStringFromBinary
c0de0478 c0de0478        0     1                 $d.14
c0de0480 c0de0480       38     4         build/flex/obj/app/ethereum-plugin-sdk/src/common_utils.o:(.text.getEthDisplayableAddress)
c0de0480 c0de0480        0     1                 $t.15
c0de0481 c0de0481       38     1                 getEthDisplayableAddress
c0de04b4 c0de04b4        0     1                 $d.16
c0de04b8 c0de04b8       1c     2         build/flex/obj/app/ethereum-plugin-sdk/src/common_utils.o:(.text.ismaxint)
c0de04b8 c0de04b8        0     1                 $t.17
c0de04b9 c0de04b9       1c     1                 ismaxint
c0de04d4 c0de04d4       12     2         build/flex/obj/app/ethereum-plugin-sdk/src/plugin_utils.o:(.text.copy_address)
c0de04d4 c0de04d4        0     1                 $t.0
c0de04d5 c0de04d5       12     1                 copy_address
c0de04e6 c0de04e6        e     2         build/flex/obj/app/ethereum-plugin-sdk/src/plugin_utils.o:(.text.copy_parameter)
c0de04e6 c0de04e6        0     1                 $t.1
c0de04e7 c0de04e7        e     1                 copy_parameter
c0de04f4 c0de04f4       14     2         build/flex/obj/app/src/eth_plugin_handler.o:(.text.eth_plugin_prepare_init)
c0de04f4 c0de04f4        0     1                 $t.0
c0de04f5 c0de04f5       14     1                 eth_plugin_prepare_init
c0de0508 c0de0508       12     2         build/flex/obj/app/src/eth_plugin_handler.o:(.text.eth_plugin_prepare_provide_parameter)
c0de0508 c0de0508        0     1                 $t.1
c0de0509 c0de0509       12     1                 eth_plugin_prepare_provide_parameter
c0de051a c0de051a        6     2         build/flex/obj/app/src/eth_plugin_handler.o:(.text.eth_plugin_prepare_finalize)
c0de051a c0de051a        0     1                 $t.2
c0de051b c0de051b        6     1                 eth_plugin_prepare_finalize
c0de0520 c0de0520        6     2         build/flex/obj/app/src/eth_plugin_handler.o:(.text.eth_plugin_prepare_provide_info)
c0de0520 c0de0520        0     1                 $t.3
c0de0521 c0de0521        6     1                 eth_plugin_prepare_provide_info
c0de0526 c0de0526       16     2         build/flex/obj/app/src/eth_plugin_handler.o:(.text.eth_plugin_prepare_query_contract_id)
c0de0526 c0de0526        0     1                 $t.4
c0de0527 c0de0527       16     1                 eth_plugin_prepare_query_contract_id
c0de053c c0de053c       84     4         build/flex/obj/app/src/eth_plugin_handler.o:(.text.eth_plugin_prepare_query_contract_ui)
c0de053c c0de053c        0     1                 $t.5
c0de053d c0de053d       84     1                 eth_plugin_prepare_query_contract_ui
c0de05b8 c0de05b8        0     1                 $d.6
c0de05c0 c0de05c0      190     4         build/flex/obj/app/src/eth_plugin_handler.o:(.text.eth_plugin_perform_init)
c0de05c0 c0de05c0        0     1                 $t.7
c0de05c1 c0de05c1      190     1                 eth_plugin_perform_init
c0de0740 c0de0740        0     1                 $d.8
c0de0750 c0de0750      208     4         build/flex/obj/app/src/eth_plugin_handler.o:(.text.eth_plugin_call)
c0de0750 c0de0750        0     1                 $t.9
c0de0751 c0de0751      208     1                 eth_plugin_call
c0de0944 c0de0944        0     1                 $d.10
c0de0958 c0de0958       10     2         build/flex/obj/app/src/eth_plugin_handler.o:(.text.OUTLINED_FUNCTION_0)
c0de0958 c0de0958        0     1                 $t.11
c0de0959 c0de0959       10     1                 OUTLINED_FUNCTION_0
c0de0968 c0de0968        a     2         build/flex/obj/app/src/eth_plugin_handler.o:(.text.OUTLINED_FUNCTION_1)
c0de0968 c0de0968        0     1                 $t.12
c0de0969 c0de0969        a     1                 OUTLINED_FUNCTION_1
c0de0972 c0de0972       7a     2         build/flex/obj/app/src/eth_swap_utils.o:(.text.parse_swap_config)
c0de0972 c0de0972        0     1                 $t.0
c0de0973 c0de0973       7a     1                 parse_swap_config
c0de09ec c0de09ec       60     2         build/flex/obj/app/src/eth_swap_utils.o:(.text.parse_asset_info)
c0de09ec c0de09ec        0     1                 $t.1
c0de09ed c0de09ed       60     1                 parse_asset_info
c0de0a4c c0de0a4c       46     2         build/flex/obj/app/src/eth_swap_utils.o:(.text.get_asset_info_on_network)
c0de0a4c c0de0a4c        0     1                 $t.2
c0de0a4d c0de0a4d       46     1                 get_asset_info_on_network
c0de0a94 c0de0a94       84     4         build/flex/obj/app/src/eth_swap_utils.o:(.text.swap_check_destination)
c0de0a94 c0de0a94        0     1                 $t.3
c0de0a95 c0de0a95       84     1                 swap_check_destination
c0de0b0c c0de0b0c        0     1                 $d.4
c0de0b18 c0de0b18       58     4         build/flex/obj/app/src/eth_swap_utils.o:(.text.swap_check_amount)
c0de0b18 c0de0b18        0     1                 $t.5
c0de0b19 c0de0b19       58     1                 swap_check_amount
c0de0b68 c0de0b68        0     1                 $d.6
c0de0b70 c0de0b70       58     4         build/flex/obj/app/src/eth_swap_utils.o:(.text.swap_check_fee)
c0de0b70 c0de0b70        0     1                 $t.7
c0de0b71 c0de0b71       58     1                 swap_check_fee
c0de0bc0 c0de0bc0        0     1                 $d.8
c0de0bc8 c0de0bc8        c     2         build/flex/obj/app/src/eth_swap_utils.o:(.text.OUTLINED_FUNCTION_0)
c0de0bc8 c0de0bc8        0     1                 $t.9
c0de0bc9 c0de0bc9        c     1                 OUTLINED_FUNCTION_0
c0de0bd4 c0de0bd4        a     2         build/flex/obj/app/src/eth_swap_utils.o:(.text.OUTLINED_FUNCTION_1)
c0de0bd4 c0de0bd4        0     1                 $t.10
c0de0bd5 c0de0bd5        a     1                 OUTLINED_FUNCTION_1
c0de0bde c0de0bde        c     2         build/flex/obj/app/src/eth_swap_utils.o:(.text.OUTLINED_FUNCTION_2)
c0de0bde c0de0bde        0     1                 $t.11
c0de0bdf c0de0bdf        c     1                 OUTLINED_FUNCTION_2
c0de0bea c0de0bea        c     2         build/flex/obj/app/src/eth_swap_utils.o:(.text.OUTLINED_FUNCTION_3)
c0de0bea c0de0bea        0     1                 $t.12
c0de0beb c0de0beb        c     1                 OUTLINED_FUNCTION_3
c0de0bf6 c0de0bf6        8     2         build/flex/obj/app/src/eth_swap_utils.o:(.text.OUTLINED_FUNCTION_4)
c0de0bf6 c0de0bf6        0     1                 $t.13
c0de0bf7 c0de0bf7        8     1                 OUTLINED_FUNCTION_4
c0de0bfe c0de0bfe       3e     2         build/flex/obj/app/src/features/generic_tx_parser/calldata.o:(.text.calldata_init)
c0de0bfe c0de0bfe        0     1                 $t.0
c0de0bff c0de0bff       3e     1                 calldata_init
c0de0c3c c0de0c3c       24     2         build/flex/obj/app/src/features/generic_tx_parser/calldata.o:(.text.calldata_set_selector)
c0de0c3c c0de0c3c        0     1                 $t.1
c0de0c3d c0de0c3d       24     1                 calldata_set_selector
c0de0c60 c0de0c60      106     2         build/flex/obj/app/src/features/generic_tx_parser/calldata.o:(.text.calldata_append)
c0de0c60 c0de0c60        0     1                 $t.2
c0de0c61 c0de0c61      106     1                 calldata_append
c0de0d68 c0de0d68       20     4         build/flex/obj/app/src/features/generic_tx_parser/calldata.o:(.text.calldata_delete)
c0de0d68 c0de0d68        0     1                 $t.3
c0de0d69 c0de0d69       20     1                 calldata_delete
c0de0d84 c0de0d84        0     1                 $d.4
c0de0d88 c0de0d88       1c     2         build/flex/obj/app/src/features/generic_tx_parser/calldata.o:(.text.delete_calldata_chunk)
c0de0d88 c0de0d88        0     1                 $t.5
c0de0d89 c0de0d89       1c     1                 delete_calldata_chunk
c0de0da4 c0de0da4       14     2         build/flex/obj/app/src/features/generic_tx_parser/calldata.o:(.text.calldata_get_selector)
c0de0da4 c0de0da4        0     1                 $t.6
c0de0da5 c0de0da5       14     1                 calldata_get_selector
c0de0db8 c0de0db8       70     2         build/flex/obj/app/src/features/generic_tx_parser/calldata.o:(.text.calldata_get_chunk)
c0de0db8 c0de0db8        0     1                 $t.7
c0de0db9 c0de0db9       70     1                 calldata_get_chunk
c0de0e28 c0de0e28        a     2         build/flex/obj/app/src/features/generic_tx_parser/calldata.o:(.text.OUTLINED_FUNCTION_0)
c0de0e28 c0de0e28        0     1                 $t.9
c0de0e29 c0de0e29        a     1                 OUTLINED_FUNCTION_0
c0de0e34 c0de0e34       58     4         build/flex/obj/app/src/features/generic_tx_parser/cmd_field.o:(.text.handle_field)
c0de0e34 c0de0e34        0     1                 $t.0
c0de0e35 c0de0e35       58     1                 handle_field
c0de0e84 c0de0e84        0     1                 $d.1
c0de0e8c c0de0e8c       90     4         build/flex/obj/app/src/features/generic_tx_parser/cmd_field.o:(.text.handle_tlv_payload)
c0de0e8c c0de0e8c        0     1                 $t.2
c0de0e8d c0de0e8d       90     1                 handle_tlv_payload
c0de0f14 c0de0f14        0     1                 $d.3
c0de0f1c c0de0f1c       48     4         build/flex/obj/app/src/features/generic_tx_parser/cmd_tx_info.o:(.text.handle_tx_info)
c0de0f1c c0de0f1c        0     1                 $t.0
c0de0f1d c0de0f1d       48     1                 handle_tx_info
c0de0f5c c0de0f5c        0     1                 $d.1
c0de0f64 c0de0f64       7c     4         build/flex/obj/app/src/features/generic_tx_parser/cmd_tx_info.o:(.text.handle_tlv_payload)
c0de0f64 c0de0f64        0     1                 $t.2
c0de0f65 c0de0f65       7c     1                 handle_tlv_payload
c0de0fdc c0de0fdc        0     1                 $d.3
c0de0fe0 c0de0fe0      110     4         build/flex/obj/app/src/features/generic_tx_parser/gtp_data_path.o:(.text.handle_data_path_struct)
c0de0fe0 c0de0fe0        0     1                 $t.0
c0de0fe1 c0de0fe1      110     1                 handle_data_path_struct
c0de10e8 c0de10e8        0     1                 $d.1
c0de10f0 c0de10f0      2a0     2         build/flex/obj/app/src/features/generic_tx_parser/gtp_data_path.o:(.text.data_path_get)
c0de10f0 c0de10f0        0     1                 $t.2
c0de10f1 c0de10f1      2a0     1                 data_path_get
c0de1390 c0de1390       2a     2         build/flex/obj/app/src/features/generic_tx_parser/gtp_data_path.o:(.text.data_path_cleanup)
c0de1390 c0de1390        0     1                 $t.3
c0de1391 c0de1391       2a     1                 data_path_cleanup
c0de13ba c0de13ba       12     2         build/flex/obj/app/src/features/generic_tx_parser/gtp_data_path.o:(.text.OUTLINED_FUNCTION_0)
c0de13ba c0de13ba        0     1                 $t.4
c0de13bb c0de13bb       12     1                 OUTLINED_FUNCTION_0
c0de13cc c0de13cc        8     2         build/flex/obj/app/src/features/generic_tx_parser/gtp_data_path.o:(.text.OUTLINED_FUNCTION_1)
c0de13cc c0de13cc        0     1                 $t.5
c0de13cd c0de13cd        8     1                 OUTLINED_FUNCTION_1
c0de13d4 c0de13d4        e     2         build/flex/obj/app/src/features/generic_tx_parser/gtp_data_path.o:(.text.OUTLINED_FUNCTION_2)
c0de13d4 c0de13d4        0     1                 $t.6
c0de13d5 c0de13d5        e     1                 OUTLINED_FUNCTION_2
c0de13e2 c0de13e2        a     2         build/flex/obj/app/src/features/generic_tx_parser/gtp_data_path.o:(.text.OUTLINED_FUNCTION_3)
c0de13e2 c0de13e2        0     1                 $t.7
c0de13e3 c0de13e3        a     1                 OUTLINED_FUNCTION_3
c0de13ec c0de13ec      1f4     4         build/flex/obj/app/src/features/generic_tx_parser/gtp_field.o:(.text.handle_field_struct)
c0de13ec c0de13ec        0     1                 $t.0
c0de13ed c0de13ed      1f4     1                 handle_field_struct
c0de15b0 c0de15b0        0     1                 $d.1
c0de15e0 c0de15e0       2a     2         build/flex/obj/app/src/features/generic_tx_parser/gtp_field.o:(.text.verify_field_struct)
c0de15e0 c0de15e0        0     1                 $t.2
c0de15e1 c0de15e1       2a     1                 verify_field_struct
c0de160c c0de160c       c4     4         build/flex/obj/app/src/features/generic_tx_parser/gtp_field.o:(.text.format_field)
c0de160c c0de160c        0     1                 $t.3
c0de160d c0de160d       c4     1                 format_field
c0de16cc c0de16cc        0     1                 $d.4
c0de16d0 c0de16d0       1c     4         build/flex/obj/app/src/features/generic_tx_parser/gtp_field.o:(.text.cleanup_field_constraints)
c0de16d0 c0de16d0        0     1                 $t.5
c0de16d1 c0de16d1       1c     1                 cleanup_field_constraints
c0de16e8 c0de16e8        0     1                 $d.6
c0de16ec c0de16ec       20     2         build/flex/obj/app/src/features/generic_tx_parser/gtp_field.o:(.text.constraint_node_del)
c0de16ec c0de16ec        0     1                 $t.7
c0de16ed c0de16ed       20     1                 constraint_node_del
c0de170c c0de170c        8     2         build/flex/obj/app/src/features/generic_tx_parser/gtp_field.o:(.text.OUTLINED_FUNCTION_0)
c0de170c c0de170c        0     1                 $t.8
c0de170d c0de170d        8     1                 OUTLINED_FUNCTION_0
c0de1714 c0de1714       1c     4         build/flex/obj/app/src/features/generic_tx_parser/gtp_field_table.o:(.text.field_table_init)
c0de1714 c0de1714        0     1                 $t.0
c0de1715 c0de1715       1c     1                 field_table_init
c0de172c c0de172c        0     1                 $d.1
c0de1730 c0de1730       14     4         build/flex/obj/app/src/features/generic_tx_parser/gtp_field_table.o:(.text.field_table_cleanup)
c0de1730 c0de1730        0     1                 $t.2
c0de1731 c0de1731       14     1                 field_table_cleanup
c0de173c c0de173c        0     1                 $d.3
c0de1744 c0de1744       2c     4         build/flex/obj/app/src/features/generic_tx_parser/gtp_field_table.o:(.text.delete_table_node)
c0de1744 c0de1744        0     1                 $t.4
c0de1745 c0de1745       2c     1                 delete_table_node
c0de176c c0de176c        0     1                 $d.5
c0de1770 c0de1770      11c     4         build/flex/obj/app/src/features/generic_tx_parser/gtp_field_table.o:(.text.add_to_field_table)
c0de1770 c0de1770        0     1                 $t.6
c0de1771 c0de1771      11c     1                 add_to_field_table
c0de1880 c0de1880        0     1                 $d.7
c0de188c c0de188c       24     4         build/flex/obj/app/src/features/generic_tx_parser/gtp_field_table.o:(.text.set_intent_field)
c0de188c c0de188c        0     1                 $t.8
c0de188d c0de188d       24     1                 set_intent_field
c0de18a8 c0de18a8        0     1                 $d.9
c0de18b0 c0de18b0        c     4         build/flex/obj/app/src/features/generic_tx_parser/gtp_field_table.o:(.text.field_table_size)
c0de18b0 c0de18b0        0     1                 $t.10
c0de18b1 c0de18b1        c     1                 field_table_size
c0de18b8 c0de18b8        0     1                 $d.11
c0de18bc c0de18bc       24     4         build/flex/obj/app/src/features/generic_tx_parser/gtp_field_table.o:(.text.get_from_field_table)
c0de18bc c0de18bc        0     1                 $t.12
c0de18bd c0de18bd       24     1                 get_from_field_table
c0de18dc c0de18dc        0     1                 $d.13
c0de18e0 c0de18e0       44     4         build/flex/obj/app/src/features/generic_tx_parser/gtp_param_amount.o:(.text.handle_param_amount_struct)
c0de18e0 c0de18e0        0     1                 $t.0
c0de18e1 c0de18e1       44     1                 handle_param_amount_struct
c0de1920 c0de1920        0     1                 $d.1
c0de1924 c0de1924       b8     4         build/flex/obj/app/src/features/generic_tx_parser/gtp_param_amount.o:(.text.format_param_amount)
c0de1924 c0de1924        0     1                 $t.2
c0de1925 c0de1925       b8     1                 format_param_amount
c0de19d4 c0de19d4        0     1                 $d.3
c0de19dc c0de19dc       b8     4         build/flex/obj/app/src/features/generic_tx_parser/gtp_param_calldata.o:(.text.handle_param_calldata_struct)
c0de19dc c0de19dc        0     1                 $t.0
c0de19dd c0de19dd       b8     1                 handle_param_calldata_struct
c0de1a90 c0de1a90        0     1                 $d.1
c0de1a94 c0de1a94      2ac     4         build/flex/obj/app/src/features/generic_tx_parser/gtp_param_calldata.o:(.text.format_param_calldata)
c0de1a94 c0de1a94        0     1                 $t.2
c0de1a95 c0de1a95      2ac     1                 format_param_calldata
c0de1d38 c0de1d38        0     1                 $d.3
c0de1d40 c0de1d40        8     2         build/flex/obj/app/src/features/generic_tx_parser/gtp_param_calldata.o:(.text.OUTLINED_FUNCTION_0)
c0de1d40 c0de1d40        0     1                 $t.4
c0de1d41 c0de1d41        8     1                 OUTLINED_FUNCTION_0
c0de1d48 c0de1d48        6     2         build/flex/obj/app/src/features/generic_tx_parser/gtp_param_calldata.o:(.text.OUTLINED_FUNCTION_1)
c0de1d48 c0de1d48        0     1                 $t.5
c0de1d49 c0de1d49        6     1                 OUTLINED_FUNCTION_1
c0de1d4e c0de1d4e        8     2         build/flex/obj/app/src/features/generic_tx_parser/gtp_param_calldata.o:(.text.OUTLINED_FUNCTION_2)
c0de1d4e c0de1d4e        0     1                 $t.6
c0de1d4f c0de1d4f        8     1                 OUTLINED_FUNCTION_2
c0de1d58 c0de1d58       5c     4         build/flex/obj/app/src/features/generic_tx_parser/gtp_param_datetime.o:(.text.handle_param_datetime_struct)
c0de1d58 c0de1d58        0     1                 $t.0
c0de1d59 c0de1d59       5c     1                 handle_param_datetime_struct
c0de1db0 c0de1db0        0     1                 $d.1
c0de1db4 c0de1db4       fc     4         build/flex/obj/app/src/features/generic_tx_parser/gtp_param_datetime.o:(.text.format_param_datetime)
c0de1db4 c0de1db4        0     1                 $t.2
c0de1db5 c0de1db5       fc     1                 format_param_datetime
c0de1ea8 c0de1ea8        0     1                 $d.3
c0de1eb0 c0de1eb0       44     4         build/flex/obj/app/src/features/generic_tx_parser/gtp_param_duration.o:(.text.handle_param_duration_struct)
c0de1eb0 c0de1eb0        0     1                 $t.0
c0de1eb1 c0de1eb1       44     1                 handle_param_duration_struct
c0de1ef0 c0de1ef0        0     1                 $d.1
c0de1ef4 c0de1ef4      15c     4         build/flex/obj/app/src/features/generic_tx_parser/gtp_param_duration.o:(.text.format_param_duration)
c0de1ef4 c0de1ef4        0     1                 $t.2
c0de1ef5 c0de1ef5      15c     1                 format_param_duration
c0de2038 c0de2038        0     1                 $d.3
c0de2050 c0de2050       58     4         build/flex/obj/app/src/features/generic_tx_parser/gtp_param_enum.o:(.text.handle_param_enum_struct)
c0de2050 c0de2050        0     1                 $t.0
c0de2051 c0de2051       58     1                 handle_param_enum_struct
c0de20a4 c0de20a4        0     1                 $d.1
c0de20a8 c0de20a8       ac     4         build/flex/obj/app/src/features/generic_tx_parser/gtp_param_enum.o:(.text.format_param_enum)
c0de20a8 c0de20a8        0     1                 $t.2
c0de20a9 c0de20a9       ac     1                 format_param_enum
c0de2150 c0de2150        0     1                 $d.3
c0de2154 c0de2154       44     4         build/flex/obj/app/src/features/generic_tx_parser/gtp_param_network.o:(.text.handle_param_network_struct)
c0de2154 c0de2154        0     1                 $t.0
c0de2155 c0de2155       44     1                 handle_param_network_struct
c0de2194 c0de2194        0     1                 $d.1
c0de2198 c0de2198       b0     4         build/flex/obj/app/src/features/generic_tx_parser/gtp_param_network.o:(.text.format_param_network)
c0de2198 c0de2198        0     1                 $t.2
c0de2199 c0de2199       b0     1                 format_param_network
c0de2244 c0de2244        0     1                 $d.3
c0de2248 c0de2248       64     4         build/flex/obj/app/src/features/generic_tx_parser/gtp_param_nft.o:(.text.handle_param_nft_struct)
c0de2248 c0de2248        0     1                 $t.0
c0de2249 c0de2249       64     1                 handle_param_nft_struct
c0de22a4 c0de22a4        0     1                 $d.1
c0de22ac c0de22ac      110     4         build/flex/obj/app/src/features/generic_tx_parser/gtp_param_nft.o:(.text.format_param_nft)
c0de22ac c0de22ac        0     1                 $t.2
c0de22ad c0de22ad      110     1                 format_param_nft
c0de23b4 c0de23b4        0     1                 $d.3
c0de23bc c0de23bc       44     4         build/flex/obj/app/src/features/generic_tx_parser/gtp_param_raw.o:(.text.handle_param_raw_struct)
c0de23bc c0de23bc        0     1                 $t.0
c0de23bd c0de23bd       44     1                 handle_param_raw_struct
c0de23fc c0de23fc        0     1                 $d.1
c0de2400 c0de2400       88     2         build/flex/obj/app/src/features/generic_tx_parser/gtp_param_raw.o:(.text.format_uint)
c0de2400 c0de2400        0     1                 $t.2
c0de2401 c0de2401       88     1                 format_uint
c0de2488 c0de2488       20     2         build/flex/obj/app/src/features/generic_tx_parser/gtp_param_raw.o:(.text.apply_visibility_constraint)
c0de2488 c0de2488        0     1                 $t.3
c0de2489 c0de2489       20     1                 apply_visibility_constraint
c0de24a8 c0de24a8       e8     4         build/flex/obj/app/src/features/generic_tx_parser/gtp_param_raw.o:(.text.format_int)
c0de24a8 c0de24a8        0     1                 $t.4
c0de24a9 c0de24a9       e8     1                 format_int
c0de2580 c0de2580        0     1                 $d.5
c0de2590 c0de2590      27c     4         build/flex/obj/app/src/features/generic_tx_parser/gtp_param_raw.o:(.text.format_param_raw)
c0de2590 c0de2590        0     1                 $t.6
c0de2591 c0de2591      27c     1                 format_param_raw
c0de27ec c0de27ec        0     1                 $d.7
c0de280c c0de280c       12     2         build/flex/obj/app/src/features/generic_tx_parser/gtp_param_raw.o:(.text.OUTLINED_FUNCTION_0)
c0de280c c0de280c        0     1                 $t.8
c0de280d c0de280d       12     1                 OUTLINED_FUNCTION_0
c0de281e c0de281e        c     2         build/flex/obj/app/src/features/generic_tx_parser/gtp_param_raw.o:(.text.OUTLINED_FUNCTION_1)
c0de281e c0de281e        0     1                 $t.9
c0de281f c0de281f        c     1                 OUTLINED_FUNCTION_1
c0de282c c0de282c       78     4         build/flex/obj/app/src/features/generic_tx_parser/gtp_param_token.o:(.text.handle_param_token_struct)
c0de282c c0de282c        0     1                 $t.0
c0de282d c0de282d       78     1                 handle_param_token_struct
c0de28a0 c0de28a0        0     1                 $d.1
c0de28a4 c0de28a4       f0     4         build/flex/obj/app/src/features/generic_tx_parser/gtp_param_token.o:(.text.format_param_token)
c0de28a4 c0de28a4        0     1                 $t.2
c0de28a5 c0de28a5       f0     1                 format_param_token
c0de2990 c0de2990        0     1                 $d.3
c0de2994 c0de2994       f0     4         build/flex/obj/app/src/features/generic_tx_parser/gtp_param_token_amount.o:(.text.handle_param_token_amount_struct)
c0de2994 c0de2994        0     1                 $t.0
c0de2995 c0de2995       f0     1                 handle_param_token_amount_struct
c0de2a7c c0de2a7c        0     1                 $d.1
c0de2a84 c0de2a84      210     4         build/flex/obj/app/src/features/generic_tx_parser/gtp_param_token_amount.o:(.text.format_param_token_amount)
c0de2a84 c0de2a84        0     1                 $t.2
c0de2a85 c0de2a85      210     1                 format_param_token_amount
c0de2c7c c0de2c7c        0     1                 $d.3
c0de2c94 c0de2c94       c8     4         build/flex/obj/app/src/features/generic_tx_parser/gtp_param_trusted_name.o:(.text.handle_param_trusted_name_struct)
c0de2c94 c0de2c94        0     1                 $t.0
c0de2c95 c0de2c95       c8     1                 handle_param_trusted_name_struct
c0de2d58 c0de2d58        0     1                 $d.1
c0de2d5c c0de2d5c      160     4         build/flex/obj/app/src/features/generic_tx_parser/gtp_param_trusted_name.o:(.text.format_param_trusted_name)
c0de2d5c c0de2d5c        0     1                 $t.2
c0de2d5d c0de2d5d      160     1                 format_param_trusted_name
c0de2eb4 c0de2eb4        0     1                 $d.3
c0de2ebc c0de2ebc       64     2         build/flex/obj/app/src/features/generic_tx_parser/gtp_param_trusted_name.o:(.text.check_address_constraint)
c0de2ebc c0de2ebc        0     1                 $t.4
c0de2ebd c0de2ebd       64     1                 check_address_constraint
c0de2f20 c0de2f20       98     4         build/flex/obj/app/src/features/generic_tx_parser/gtp_param_unit.o:(.text.handle_param_unit_struct)
c0de2f20 c0de2f20        0     1                 $t.0
c0de2f21 c0de2f21       98     1                 handle_param_unit_struct
c0de2fb4 c0de2fb4        0     1                 $d.1
c0de2fb8 c0de2fb8       d4     4         build/flex/obj/app/src/features/generic_tx_parser/gtp_param_unit.o:(.text.format_param_unit)
c0de2fb8 c0de2fb8        0     1                 $t.2
c0de2fb9 c0de2fb9       d4     1                 format_param_unit
c0de3084 c0de3084        0     1                 $d.3
c0de308c c0de308c       58     2         build/flex/obj/app/src/features/generic_tx_parser/gtp_path_array.o:(.text.handle_array_struct)
c0de308c c0de308c        0     1                 $t.0
c0de308d c0de308d       58     1                 handle_array_struct
c0de30e4 c0de30e4       40     2         build/flex/obj/app/src/features/generic_tx_parser/gtp_path_slice.o:(.text.handle_slice_struct)
c0de30e4 c0de30e4        0     1                 $t.0
c0de30e5 c0de30e5       40     1                 handle_slice_struct
c0de3124 c0de3124      224     4         build/flex/obj/app/src/features/generic_tx_parser/gtp_tx_info.o:(.text.handle_tx_info_struct)
c0de3124 c0de3124        0     1                 $t.0
c0de3125 c0de3125      224     1                 handle_tx_info_struct
c0de3344 c0de3344        0     1                 $d.1
c0de3348 c0de3348       70     4         build/flex/obj/app/src/features/generic_tx_parser/gtp_tx_info.o:(.text.verify_tx_info_struct)
c0de3348 c0de3348        0     1                 $t.2
c0de3349 c0de3349       70     1                 verify_tx_info_struct
c0de33b4 c0de33b4        0     1                 $d.3
c0de33b8 c0de33b8       12     2         build/flex/obj/app/src/features/generic_tx_parser/gtp_tx_info.o:(.text.get_operation_type)
c0de33b8 c0de33b8        0     1                 $t.4
c0de33b9 c0de33b9       12     1                 get_operation_type
c0de33ca c0de33ca       12     2         build/flex/obj/app/src/features/generic_tx_parser/gtp_tx_info.o:(.text.get_creator_name)
c0de33ca c0de33ca        0     1                 $t.5
c0de33cb c0de33cb       12     1                 get_creator_name
c0de33dc c0de33dc       12     2         build/flex/obj/app/src/features/generic_tx_parser/gtp_tx_info.o:(.text.get_creator_legal_name)
c0de33dc c0de33dc        0     1                 $t.6
c0de33dd c0de33dd       12     1                 get_creator_legal_name
c0de33ee c0de33ee       12     2         build/flex/obj/app/src/features/generic_tx_parser/gtp_tx_info.o:(.text.get_creator_url)
c0de33ee c0de33ee        0     1                 $t.7
c0de33ef c0de33ef       12     1                 get_creator_url
c0de3400 c0de3400       12     2         build/flex/obj/app/src/features/generic_tx_parser/gtp_tx_info.o:(.text.get_contract_name)
c0de3400 c0de3400        0     1                 $t.8
c0de3401 c0de3401       12     1                 get_contract_name
c0de3412 c0de3412        8     2         build/flex/obj/app/src/features/generic_tx_parser/gtp_tx_info.o:(.text.get_contract_addr)
c0de3412 c0de3412        0     1                 $t.9
c0de3413 c0de3413        8     1                 get_contract_addr
c0de341a c0de341a       12     2         build/flex/obj/app/src/features/generic_tx_parser/gtp_tx_info.o:(.text.get_deploy_date)
c0de341a c0de341a        0     1                 $t.10
c0de341b c0de341b       12     1                 get_deploy_date
c0de342c c0de342c        8     2         build/flex/obj/app/src/features/generic_tx_parser/gtp_tx_info.o:(.text.delete_tx_info)
c0de342c c0de342c        0     1                 $t.11
c0de342d c0de342d        8     1                 delete_tx_info
c0de3434 c0de3434        a     2         build/flex/obj/app/src/features/generic_tx_parser/gtp_tx_info.o:(.text.OUTLINED_FUNCTION_0)
c0de3434 c0de3434        0     1                 $t.12
c0de3435 c0de3435        a     1                 OUTLINED_FUNCTION_0
c0de3440 c0de3440       c8     4         build/flex/obj/app/src/features/generic_tx_parser/gtp_value.o:(.text.handle_value_struct)
c0de3440 c0de3440        0     1                 $t.0
c0de3441 c0de3441       c8     1                 handle_value_struct
c0de3504 c0de3504        0     1                 $d.1
c0de3508 c0de3508       94     4         build/flex/obj/app/src/features/generic_tx_parser/gtp_value.o:(.text.value_get)
c0de3508 c0de3508        0     1                 $t.2
c0de3509 c0de3509       94     1                 value_get
c0de3598 c0de3598        0     1                 $d.3
c0de359c c0de359c        e     2         build/flex/obj/app/src/features/generic_tx_parser/gtp_value.o:(.text.value_cleanup)
c0de359c c0de359c        0     1                 $t.4
c0de359d c0de359d        e     1                 value_cleanup
c0de35ac c0de35ac       20     4         build/flex/obj/app/src/features/generic_tx_parser/tx_ctx.o:(.text.tx_ctx_is_root)
c0de35ac c0de35ac        0     1                 $t.0
c0de35ad c0de35ad       20     1                 tx_ctx_is_root
c0de35c8 c0de35c8        0     1                 $d.1
c0de35cc c0de35cc        c     4         build/flex/obj/app/src/features/generic_tx_parser/tx_ctx.o:(.text.get_tx_ctx_count)
c0de35cc c0de35cc        0     1                 $t.2
c0de35cd c0de35cd        c     1                 get_tx_ctx_count
c0de35d4 c0de35d4        0     1                 $d.3
c0de35d8 c0de35d8       10     4         build/flex/obj/app/src/features/generic_tx_parser/tx_ctx.o:(.text.get_fields_hash_ctx)
c0de35d8 c0de35d8        0     1                 $t.4
c0de35d9 c0de35d9       10     1                 get_fields_hash_ctx
c0de35e4 c0de35e4        0     1                 $d.5
c0de35e8 c0de35e8       14     4         build/flex/obj/app/src/features/generic_tx_parser/tx_ctx.o:(.text.get_current_tx_info)
c0de35e8 c0de35e8        0     1                 $t.6
c0de35e9 c0de35e9       14     1                 get_current_tx_info
c0de35f8 c0de35f8        0     1                 $d.7
c0de35fc c0de35fc       14     4         build/flex/obj/app/src/features/generic_tx_parser/tx_ctx.o:(.text.get_current_calldata)
c0de35fc c0de35fc        0     1                 $t.10
c0de35fd c0de35fd       14     1                 get_current_calldata
c0de360c c0de360c        0     1                 $d.11
c0de3610 c0de3610       14     4         build/flex/obj/app/src/features/generic_tx_parser/tx_ctx.o:(.text.get_root_calldata)
c0de3610 c0de3610        0     1                 $t.12
c0de3611 c0de3611       14     1                 get_root_calldata
c0de3620 c0de3620        0     1                 $d.13
c0de3624 c0de3624       14     4         build/flex/obj/app/src/features/generic_tx_parser/tx_ctx.o:(.text.get_current_tx_from)
c0de3624 c0de3624        0     1                 $t.14
c0de3625 c0de3625       14     1                 get_current_tx_from
c0de3634 c0de3634        0     1                 $d.15
c0de3638 c0de3638       14     4         build/flex/obj/app/src/features/generic_tx_parser/tx_ctx.o:(.text.get_current_tx_to)
c0de3638 c0de3638        0     1                 $t.16
c0de3639 c0de3639       14     1                 get_current_tx_to
c0de3648 c0de3648        0     1                 $d.17
c0de364c c0de364c       14     4         build/flex/obj/app/src/features/generic_tx_parser/tx_ctx.o:(.text.get_current_tx_amount)
c0de364c c0de364c        0     1                 $t.18
c0de364d c0de364d       14     1                 get_current_tx_amount
c0de365c c0de365c        0     1                 $d.19
c0de3660 c0de3660       18     4         build/flex/obj/app/src/features/generic_tx_parser/tx_ctx.o:(.text.get_current_tx_chain_id)
c0de3660 c0de3660        0     1                 $t.20
c0de3661 c0de3661       18     1                 get_current_tx_chain_id
c0de3674 c0de3674        0     1                 $d.21
c0de3678 c0de3678       58     4         build/flex/obj/app/src/features/generic_tx_parser/tx_ctx.o:(.text.validate_instruction_hash)
c0de3678 c0de3678        0     1                 $t.22
c0de3679 c0de3679       58     1                 validate_instruction_hash
c0de36cc c0de36cc        0     1                 $d.23
c0de36d0 c0de36d0       1c     4         build/flex/obj/app/src/features/generic_tx_parser/tx_ctx.o:(.text.tx_ctx_pop)
c0de36d0 c0de36d0        0     1                 $t.24
c0de36d1 c0de36d1       1c     1                 tx_ctx_pop
c0de36e4 c0de36e4        0     1                 $d.25
c0de36ec c0de36ec       22     2         build/flex/obj/app/src/features/generic_tx_parser/tx_ctx.o:(.text.delete_tx_ctx)
c0de36ec c0de36ec        0     1                 $t.26
c0de36ed c0de36ed       22     1                 delete_tx_ctx
c0de3710 c0de3710       28     4         build/flex/obj/app/src/features/generic_tx_parser/tx_ctx.o:(.text.process_empty_txs_before)
c0de3710 c0de3710        0     1                 $t.27
c0de3711 c0de3711       28     1                 process_empty_txs_before
c0de3734 c0de3734        0     1                 $d.28
c0de3738 c0de3738      138     4         build/flex/obj/app/src/features/generic_tx_parser/tx_ctx.o:(.text.process_empty_tx)
c0de3738 c0de3738        0     1                 $t.29
c0de3739 c0de3739      138     1                 process_empty_tx
c0de3850 c0de3850        0     1                 $d.30
c0de3870 c0de3870       28     4         build/flex/obj/app/src/features/generic_tx_parser/tx_ctx.o:(.text.process_empty_txs_after)
c0de3870 c0de3870        0     1                 $t.31
c0de3871 c0de3871       28     1                 process_empty_txs_after
c0de3894 c0de3894        0     1                 $d.32
c0de3898 c0de3898       90     4         build/flex/obj/app/src/features/generic_tx_parser/tx_ctx.o:(.text.find_matching_tx_ctx)
c0de3898 c0de3898        0     1                 $t.33
c0de3899 c0de3899       90     1                 find_matching_tx_ctx
c0de3924 c0de3924        0     1                 $d.34
c0de3928 c0de3928       9c     4         build/flex/obj/app/src/features/generic_tx_parser/tx_ctx.o:(.text.set_tx_info_into_tx_ctx)
c0de3928 c0de3928        0     1                 $t.35
c0de3929 c0de3929       9c     1                 set_tx_info_into_tx_ctx
c0de39bc c0de39bc        0     1                 $d.36
c0de39c4 c0de39c4      128     4         build/flex/obj/app/src/features/generic_tx_parser/tx_ctx.o:(.text.tx_ctx_init)
c0de39c4 c0de39c4        0     1                 $t.37
c0de39c5 c0de39c5      128     1                 tx_ctx_init
c0de3ae4 c0de3ae4        0     1                 $d.38
c0de3aec c0de3aec       3c     4         build/flex/obj/app/src/features/generic_tx_parser/tx_ctx.o:(.text.gcs_cleanup)
c0de3aec c0de3aec        0     1                 $t.39
c0de3aed c0de3aed       3c     1                 gcs_cleanup
c0de3b1c c0de3b1c        0     1                 $d.40
c0de3b28 c0de3b28       68     4         build/flex/obj/app/src/features/getAppConfiguration/cmd_getAppConfiguration.o:(.text.handleGetAppConfiguration)
c0de3b28 c0de3b28        0     1                 $t.0
c0de3b29 c0de3b29       68     1                 handleGetAppConfiguration
c0de3b84 c0de3b84        0     1                 $d.1
c0de3b90 c0de3b90       18     4         build/flex/obj/app/src/features/getChallenge/cmd_get_challenge.o:(.text.roll_challenge)
c0de3b90 c0de3b90        0     1                 $t.0
c0de3b91 c0de3b91       18     1                 roll_challenge
c0de3ba4 c0de3ba4        0     1                 $d.1
c0de3ba8 c0de3ba8       14     4         build/flex/obj/app/src/features/getChallenge/cmd_get_challenge.o:(.text.check_challenge)
c0de3ba8 c0de3ba8        0     1                 $t.4
c0de3ba9 c0de3ba9       14     1                 check_challenge
c0de3bb8 c0de3bb8        0     1                 $d.5
c0de3bbc c0de3bbc       30     4         build/flex/obj/app/src/features/getChallenge/cmd_get_challenge.o:(.text.handle_get_challenge)
c0de3bbc c0de3bbc        0     1                 $t.6
c0de3bbd c0de3bbd       30     1                 handle_get_challenge
c0de3be4 c0de3be4        0     1                 $d.7
c0de3bec c0de3bec       d8     4         build/flex/obj/app/src/features/getEth2PublicKey/cmd_getEth2PublicKey.o:(.text.getEth2PublicKey)
c0de3bec c0de3bec        0     1                 $t.0
c0de3bed c0de3bed       d8     1                 getEth2PublicKey
c0de3cc0 c0de3cc0        0     1                 $d.1
c0de3cc4 c0de3cc4       66     2         build/flex/obj/app/src/features/getEth2PublicKey/cmd_getEth2PublicKey.o:(.text.os_derive_eip2333_no_throw)
c0de3cc4 c0de3cc4        0     1                 $t.2
c0de3cc5 c0de3cc5       66     1                 os_derive_eip2333_no_throw
c0de3d2c c0de3d2c       7c     4         build/flex/obj/app/src/features/getEth2PublicKey/cmd_getEth2PublicKey.o:(.text.handleGetEth2PublicKey)
c0de3d2c c0de3d2c        0     1                 $t.3
c0de3d2d c0de3d2d       7c     1                 handleGetEth2PublicKey
c0de3da0 c0de3da0        0     1                 $d.4
c0de3da8 c0de3da8       20     4         build/flex/obj/app/src/features/getEth2PublicKey/logic_getEth2PublicKey.o:(.text.set_result_get_eth2_publicKey)
c0de3da8 c0de3da8        0     1                 $t.0
c0de3da9 c0de3da9       20     1                 set_result_get_eth2_publicKey
c0de3dc0 c0de3dc0        0     1                 $d.1
c0de3dc8 c0de3dc8      11c     4         build/flex/obj/app/src/features/getPublicKey/cmd_getPublicKey.o:(.text.handleGetPublicKey)
c0de3dc8 c0de3dc8        0     1                 $t.0
c0de3dc9 c0de3dc9      11c     1                 handleGetPublicKey
c0de3ed0 c0de3ed0        0     1                 $d.1
c0de3ee4 c0de3ee4       24     2         build/flex/obj/app/src/features/getPublicKey/getPublicKey.o:(.text.get_public_key_string)
c0de3ee4 c0de3ee4        0     1                 $t.0
c0de3ee5 c0de3ee5       24     1                 get_public_key_string
c0de3f08 c0de3f08       26     2         build/flex/obj/app/src/features/getPublicKey/getPublicKey.o:(.text.bip32_derive_get_pubkey_256)
c0de3f08 c0de3f08        0     1                 $t.1
c0de3f09 c0de3f09       26     1                 bip32_derive_get_pubkey_256
c0de3f30 c0de3f30       3c     4         build/flex/obj/app/src/features/getPublicKey/getPublicKey.o:(.text.get_public_key)
c0de3f30 c0de3f30        0     1                 $t.2
c0de3f31 c0de3f31       3c     1                 get_public_key
c0de3f68 c0de3f68        0     1                 $d.3
c0de3f6c c0de3f6c       5c     4         build/flex/obj/app/src/features/getPublicKey/getPublicKey.o:(.text.set_result_get_publicKey)
c0de3f6c c0de3f6c        0     1                 $t.4
c0de3f6d c0de3f6d       5c     1                 set_result_get_publicKey
c0de3fc0 c0de3fc0        0     1                 $d.5
c0de3fc8 c0de3fc8       16     2         build/flex/obj/app/src/features/getPublicKey/ui_common_getPublicKey.o:(.text.io_seproxyhal_touch_address_ok)
c0de3fc8 c0de3fc8        0     1                 $t.0
c0de3fc9 c0de3fc9       16     1                 io_seproxyhal_touch_address_ok
c0de3fde c0de3fde       12     2         build/flex/obj/app/src/features/getPublicKey/ui_common_getPublicKey.o:(.text.io_seproxyhal_touch_address_cancel)
c0de3fde c0de3fde        0     1                 $t.1
c0de3fdf c0de3fdf       12     1                 io_seproxyhal_touch_address_cancel
c0de3ff0 c0de3ff0       3a     2         build/flex/obj/app/src/features/performPrivacyOperation/cmd_performPrivacyOperation.o:(.text.decodeScalar)
c0de3ff0 c0de3ff0        0     1                 $t.0
c0de3ff1 c0de3ff1       3a     1                 decodeScalar
c0de402c c0de402c      194     4         build/flex/obj/app/src/features/performPrivacyOperation/cmd_performPrivacyOperation.o:(.text.handlePerformPrivacyOperation)
c0de402c c0de402c        0     1                 $t.1
c0de402d c0de402d      194     1                 handlePerformPrivacyOperation
c0de41ac c0de41ac        0     1                 $d.2
c0de41c0 c0de41c0       74     2         build/flex/obj/app/src/features/performPrivacyOperation/cmd_performPrivacyOperation.o:(.text.os_derive_bip32_with_seed_no_throw)
c0de41c0 c0de41c0        0     1                 $t.3
c0de41c1 c0de41c1       74     1                 os_derive_bip32_with_seed_no_throw
c0de4234 c0de4234       28     4         build/flex/obj/app/src/features/performPrivacyOperation/logic_performPrivacyOperation.o:(.text.set_result_perform_privacy_operation)
c0de4234 c0de4234        0     1                 $t.0
c0de4235 c0de4235       28     1                 set_result_perform_privacy_operation
c0de4254 c0de4254        0     1                 $d.1
c0de425c c0de425c       16     2         build/flex/obj/app/src/features/performPrivacyOperation/ui_common_performPrivacyOperation.o:(.text.io_seproxyhal_touch_privacy_ok)
c0de425c c0de425c        0     1                 $t.0
c0de425d c0de425d       16     1                 io_seproxyhal_touch_privacy_ok
c0de4272 c0de4272       12     2         build/flex/obj/app/src/features/performPrivacyOperation/ui_common_performPrivacyOperation.o:(.text.io_seproxyhal_touch_privacy_cancel)
c0de4272 c0de4272        0     1                 $t.1
c0de4273 c0de4273       12     1                 io_seproxyhal_touch_privacy_cancel
c0de4284 c0de4284       e4     4         build/flex/obj/app/src/features/provideErc20TokenInformation/cmd_provideTokenInfo.o:(.text.handleProvideErc20TokenInformation)
c0de4284 c0de4284        0     1                 $t.0
c0de4285 c0de4285       e4     1                 handleProvideErc20TokenInformation
c0de4358 c0de4358        0     1                 $d.1
c0de4368 c0de4368       18     2         build/flex/obj/app/src/features/provideErc20TokenInformation/cmd_provideTokenInfo.o:(.text.U4BE)
c0de4368 c0de4368        0     1                 $t.2
c0de4369 c0de4369       18     1                 U4BE
c0de4380 c0de4380      10c     4         build/flex/obj/app/src/features/provideNFTInformation/cmd_provideNFTInfo.o:(.text.handleProvideNFTInformation)
c0de4380 c0de4380        0     1                 $t.0
c0de4381 c0de4381      10c     1                 handleProvideNFTInformation
c0de447c c0de447c        0     1                 $d.1
c0de448c c0de448c       2c     4         build/flex/obj/app/src/features/provide_enum_value/cmd_enum_value.o:(.text.handle_enum_value)
c0de448c c0de448c        0     1                 $t.0
c0de448d c0de448d       2c     1                 handle_enum_value
c0de44b4 c0de44b4        0     1                 $d.1
c0de44b8 c0de44b8       40     4         build/flex/obj/app/src/features/provide_enum_value/cmd_enum_value.o:(.text.handle_tlv_payload)
c0de44b8 c0de44b8        0     1                 $t.2
c0de44b9 c0de44b9       40     1                 handle_tlv_payload
c0de44f4 c0de44f4        0     1                 $d.3
c0de44f8 c0de44f8       ec     2         build/flex/obj/app/src/features/provide_enum_value/enum_value.o:(.text.handle_enum_value_struct)
c0de44f8 c0de44f8        0     1                 $t.0
c0de44f9 c0de44f9       ec     1                 handle_enum_value_struct
c0de45e4 c0de45e4       7c     4         build/flex/obj/app/src/features/provide_enum_value/enum_value.o:(.text.verify_enum_value_struct)
c0de45e4 c0de45e4        0     1                 $t.1
c0de45e5 c0de45e5       7c     1                 verify_enum_value_struct
c0de4658 c0de4658        0     1                 $d.2
c0de4660 c0de4660       98     4         build/flex/obj/app/src/features/provide_enum_value/enum_value.o:(.text.get_matching_enum)
c0de4660 c0de4660        0     1                 $t.3
c0de4661 c0de4661       98     1                 get_matching_enum
c0de46f4 c0de46f4        0     1                 $d.4
c0de46f8 c0de46f8       20     4         build/flex/obj/app/src/features/provide_enum_value/enum_value.o:(.text.enum_value_cleanup)
c0de46f8 c0de46f8        0     1                 $t.5
c0de46f9 c0de46f9       20     1                 enum_value_cleanup
c0de4710 c0de4710        0     1                 $d.6
c0de4718 c0de4718        8     2         build/flex/obj/app/src/features/provide_enum_value/enum_value.o:(.text.delete_enum_value)
c0de4718 c0de4718        0     1                 $t.7
c0de4719 c0de4719        8     1                 delete_enum_value
c0de4720 c0de4720      2e8     4         build/flex/obj/app/src/features/provide_network_info/cmd_network_info.o:(.text.handle_network_info)
c0de4720 c0de4720        0     1                 $t.0
c0de4721 c0de4721      2e8     1                 handle_network_info
c0de49f0 c0de49f0        0     1                 $d.1
c0de4a08 c0de4a08       70     4         build/flex/obj/app/src/features/provide_network_info/cmd_network_info.o:(.text.handle_tlv_payload)
c0de4a08 c0de4a08        0     1                 $t.2
c0de4a09 c0de4a09       70     1                 handle_tlv_payload
c0de4a6c c0de4a6c        0     1                 $d.3
c0de4a78 c0de4a78       74     4         build/flex/obj/app/src/features/provide_network_info/cmd_network_info.o:(.text.network_info_cleanup)
c0de4a78 c0de4a78        0     1                 $t.4
c0de4a79 c0de4a79       74     1                 network_info_cleanup
c0de4ae0 c0de4ae0        0     1                 $d.5
c0de4aec c0de4aec       36     2         build/flex/obj/app/src/features/provide_network_info/cmd_network_info.o:(.text.check_icon_header)
c0de4aec c0de4aec        0     1                 $t.6
c0de4aed c0de4aed       36     1                 check_icon_header
c0de4b22 c0de4b22      104     2         build/flex/obj/app/src/features/provide_network_info/network_info.o:(.text.handle_network_info_struct)
c0de4b22 c0de4b22        0     1                 $t.0
c0de4b23 c0de4b23      104     1                 handle_network_info_struct
c0de4c28 c0de4c28      108     4         build/flex/obj/app/src/features/provide_network_info/network_info.o:(.text.verify_network_info_struct)
c0de4c28 c0de4c28        0     1                 $t.1
c0de4c29 c0de4c29      108     1                 verify_network_info_struct
c0de4d20 c0de4d20        0     1                 $d.2
c0de4d30 c0de4d30       30     4         build/flex/obj/app/src/features/provide_proxy_info/cmd_proxy_info.o:(.text.handle_proxy_info)
c0de4d30 c0de4d30        0     1                 $t.0
c0de4d31 c0de4d31       30     1                 handle_proxy_info
c0de4d5c c0de4d5c        0     1                 $d.1
c0de4d60 c0de4d60       40     4         build/flex/obj/app/src/features/provide_proxy_info/cmd_proxy_info.o:(.text.handle_tlv_payload)
c0de4d60 c0de4d60        0     1                 $t.2
c0de4d61 c0de4d61       40     1                 handle_tlv_payload
c0de4d9c c0de4d9c        0     1                 $d.3
c0de4da0 c0de4da0      10e     2         build/flex/obj/app/src/features/provide_proxy_info/proxy_info.o:(.text.handle_proxy_info_struct)
c0de4da0 c0de4da0        0     1                 $t.0
c0de4da1 c0de4da1      10e     1                 handle_proxy_info_struct
c0de4eb0 c0de4eb0       94     4         build/flex/obj/app/src/features/provide_proxy_info/proxy_info.o:(.text.verify_proxy_info_struct)
c0de4eb0 c0de4eb0        0     1                 $t.1
c0de4eb1 c0de4eb1       94     1                 verify_proxy_info_struct
c0de4f3c c0de4f3c        0     1                 $d.2
c0de4f44 c0de4f44       5c     2         build/flex/obj/app/src/features/provide_proxy_info/proxy_info.o:(.text.check_proxy_params)
c0de4f44 c0de4f44        0     1                 $t.5
c0de4f45 c0de4f45       5c     1                 check_proxy_params
c0de4fa0 c0de4fa0       38     4         build/flex/obj/app/src/features/provide_proxy_info/proxy_info.o:(.text.get_implem_contract)
c0de4fa0 c0de4fa0        0     1                 $t.6
c0de4fa1 c0de4fa1       38     1                 get_implem_contract
c0de4fd4 c0de4fd4        0     1                 $d.7
c0de4fd8 c0de4fd8       10     4         build/flex/obj/app/src/features/provide_proxy_info/proxy_info.o:(.text.proxy_cleanup)
c0de4fd8 c0de4fd8        0     1                 $t.8
c0de4fd9 c0de4fd9       10     1                 proxy_cleanup
c0de4fe4 c0de4fe4        0     1                 $d.9
c0de4fe8 c0de4fe8       8c     4         build/flex/obj/app/src/features/provide_safe_account/cmd_safe_account.o:(.text.handle_safe_account)
c0de4fe8 c0de4fe8        0     1                 $t.0
c0de4fe9 c0de4fe9       8c     1                 handle_safe_account
c0de5064 c0de5064        0     1                 $d.1
c0de5074 c0de5074        e     2         build/flex/obj/app/src/features/provide_safe_account/cmd_safe_account.o:(.text.clear_safe_account)
c0de5074 c0de5074        0     1                 $t.2
c0de5075 c0de5075        e     1                 clear_safe_account
c0de5084 c0de5084       b0     4         build/flex/obj/app/src/features/provide_safe_account/safe_descriptor.o:(.text.handle_safe_tlv_payload)
c0de5084 c0de5084        0     1                 $t.0
c0de5085 c0de5085       b0     1                 handle_safe_tlv_payload
c0de5128 c0de5128        0     1                 $d.1
c0de5134 c0de5134      14e     2         build/flex/obj/app/src/features/provide_safe_account/safe_descriptor.o:(.text.handle_safe_tlv)
c0de5134 c0de5134        0     1                 $t.2
c0de5135 c0de5135      14e     1                 handle_safe_tlv
c0de5284 c0de5284       1c     4         build/flex/obj/app/src/features/provide_safe_account/safe_descriptor.o:(.text.clear_safe_descriptor)
c0de5284 c0de5284        0     1                 $t.3
c0de5285 c0de5285       1c     1                 clear_safe_descriptor
c0de529c c0de529c        0     1                 $d.4
c0de52a0 c0de52a0        a     2         build/flex/obj/app/src/features/provide_safe_account/safe_descriptor.o:(.text.OUTLINED_FUNCTION_0)
c0de52a0 c0de52a0        0     1                 $t.5
c0de52a1 c0de52a1        a     1                 OUTLINED_FUNCTION_0
c0de52ac c0de52ac       f8     4         build/flex/obj/app/src/features/provide_safe_account/signer_descriptor.o:(.text.handle_signer_tlv_payload)
c0de52ac c0de52ac        0     1                 $t.0
c0de52ad c0de52ad       f8     1                 handle_signer_tlv_payload
c0de5394 c0de5394        0     1                 $d.1
c0de53a4 c0de53a4       f0     4         build/flex/obj/app/src/features/provide_safe_account/signer_descriptor.o:(.text.handle_signer_tlv)
c0de53a4 c0de53a4        0     1                 $t.2
c0de53a5 c0de53a5       f0     1                 handle_signer_tlv
c0de5490 c0de5490        0     1                 $d.3
c0de5494 c0de5494       24     4         build/flex/obj/app/src/features/provide_safe_account/signer_descriptor.o:(.text.clear_signer_descriptor)
c0de5494 c0de5494        0     1                 $t.4
c0de5495 c0de5495       24     1                 clear_signer_descriptor
c0de54b4 c0de54b4        0     1                 $d.5
c0de54b8 c0de54b8       2c     4         build/flex/obj/app/src/features/provide_trusted_name/cmd_trusted_name.o:(.text.handle_trusted_name)
c0de54b8 c0de54b8        0     1                 $t.0
c0de54b9 c0de54b9       2c     1                 handle_trusted_name
c0de54e0 c0de54e0        0     1                 $d.1
c0de54e4 c0de54e4       44     4         build/flex/obj/app/src/features/provide_trusted_name/cmd_trusted_name.o:(.text.handle_tlv_payload)
c0de54e4 c0de54e4        0     1                 $t.2
c0de54e5 c0de54e5       44     1                 handle_tlv_payload
c0de5524 c0de5524        0     1                 $d.3
c0de5528 c0de5528       14     4         build/flex/obj/app/src/features/provide_trusted_name/trusted_name.o:(.text.trusted_name_cleanup)
c0de5528 c0de5528        0     1                 $t.0
c0de5529 c0de5529       14     1                 trusted_name_cleanup
c0de5534 c0de5534        0     1                 $d.1
c0de553c c0de553c        8     2         build/flex/obj/app/src/features/provide_trusted_name/trusted_name.o:(.text.delete_trusted_name)
c0de553c c0de553c        0     1                 $t.2
c0de553d c0de553d        8     1                 delete_trusted_name
c0de5544 c0de5544       b8     4         build/flex/obj/app/src/features/provide_trusted_name/trusted_name.o:(.text.get_trusted_name)
c0de5544 c0de5544        0     1                 $t.3
c0de5545 c0de5545       b8     1                 get_trusted_name
c0de55f8 c0de55f8        0     1                 $d.4
c0de55fc c0de55fc      294     4         build/flex/obj/app/src/features/provide_trusted_name/trusted_name.o:(.text.handle_trusted_name_struct)
c0de55fc c0de55fc        0     1                 $t.5
c0de55fd c0de55fd      294     1                 handle_trusted_name_struct
c0de588c c0de588c        0     1                 $d.6
c0de5890 c0de5890      158     4         build/flex/obj/app/src/features/provide_trusted_name/trusted_name.o:(.text.verify_trusted_name_struct)
c0de5890 c0de5890        0     1                 $t.7
c0de5891 c0de5891      158     1                 verify_trusted_name_struct
c0de59d4 c0de59d4        0     1                 $d.8
c0de59e8 c0de59e8       22     2         build/flex/obj/app/src/features/provide_trusted_name/trusted_name.o:(.text.check_trusted_name)
c0de59e8 c0de59e8        0     1                 $t.9
c0de59e9 c0de59e9       22     1                 check_trusted_name
c0de5a0c c0de5a0c       30     4         build/flex/obj/app/src/features/provide_trusted_name/trusted_name.o:(.text.ens_charset)
c0de5a0c c0de5a0c        0     1                 $t.10
c0de5a0d c0de5a0d       30     1                 ens_charset
c0de5a38 c0de5a38        0     1                 $d.11
c0de5a3c c0de5a3c       34     4         build/flex/obj/app/src/features/provide_trusted_name/trusted_name.o:(.text.generic_trusted_name_charset)
c0de5a3c c0de5a3c        0     1                 $t.12
c0de5a3d c0de5a3d       34     1                 generic_trusted_name_charset
c0de5a6c c0de5a6c        0     1                 $d.13
c0de5a70 c0de5a70       1c     2         build/flex/obj/app/src/features/provide_trusted_name/trusted_name.o:(.text.matching_type)
c0de5a70 c0de5a70        0     1                 $t.14
c0de5a71 c0de5a71       1c     1                 matching_type
c0de5a8c c0de5a8c       4c     4         build/flex/obj/app/src/features/provide_tx_simulation/cmd_get_tx_simulation.o:(.text.handle_tx_simulation_opt_in)
c0de5a8c c0de5a8c        0     1                 $t.0
c0de5a8d c0de5a8d       4c     1                 handle_tx_simulation_opt_in
c0de5acc c0de5acc        0     1                 $d.1
c0de5ad8 c0de5ad8       6c     4         build/flex/obj/app/src/features/provide_tx_simulation/cmd_get_tx_simulation.o:(.text.handle_tx_simulation)
c0de5ad8 c0de5ad8        0     1                 $t.2
c0de5ad9 c0de5ad9       6c     1                 handle_tx_simulation
c0de5b3c c0de5b3c        0     1                 $d.3
c0de5b44 c0de5b44      13c     4         build/flex/obj/app/src/features/provide_tx_simulation/cmd_get_tx_simulation.o:(.text.handle_tlv_payload)
c0de5b44 c0de5b44        0     1                 $t.4
c0de5b45 c0de5b45      13c     1                 handle_tlv_payload
c0de5c70 c0de5c70        0     1                 $d.5
c0de5c80 c0de5c80       10     4         build/flex/obj/app/src/features/provide_tx_simulation/cmd_get_tx_simulation.o:(.text.clear_tx_simulation)
c0de5c80 c0de5c80        0     1                 $t.6
c0de5c81 c0de5c81       10     1                 clear_tx_simulation
c0de5c8c c0de5c8c        0     1                 $d.7
c0de5c90 c0de5c90      188     4         build/flex/obj/app/src/features/provide_tx_simulation/cmd_get_tx_simulation.o:(.text.set_tx_simulation_warning)
c0de5c90 c0de5c90        0     1                 $t.8
c0de5c91 c0de5c91      188     1                 set_tx_simulation_warning
c0de5dfc c0de5dfc        0     1                 $d.9
c0de5e18 c0de5e18       88     4         build/flex/obj/app/src/features/provide_tx_simulation/cmd_get_tx_simulation.o:(.text.get_tx_simulation_category_str)
c0de5e18 c0de5e18        0     1                 $t.10
c0de5e19 c0de5e19       88     1                 get_tx_simulation_category_str
c0de5e7c c0de5e7c        0     1                 $d.11
c0de5ea0 c0de5ea0      204     2         build/flex/obj/app/src/features/provide_tx_simulation/cmd_get_tx_simulation.o:(.text.handle_tx_simu_tlv)
c0de5ea0 c0de5ea0        0     1                 $t.14
c0de5ea1 c0de5ea1      204     1                 handle_tx_simu_tlv
c0de60a4 c0de60a4       38     4         build/flex/obj/app/src/features/setEth2WithdrawalIndex/cmd_setEth2WithdrawalIndex.o:(.text.handleSetEth2WithdrawalIndex)
c0de60a4 c0de60a4        0     1                 $t.0
c0de60a5 c0de60a5       38     1                 handleSetEth2WithdrawalIndex
c0de60d8 c0de60d8        0     1                 $d.1
c0de60dc c0de60dc      120     4         build/flex/obj/app/src/features/setExternalPlugin/cmd_setExternalPlugin.o:(.text.handleSetExternalPlugin)
c0de60dc c0de60dc        0     1                 $t.0
c0de60dd c0de60dd      120     1                 handleSetExternalPlugin
c0de61ec c0de61ec        0     1                 $d.1
c0de61fc c0de61fc       10     4         build/flex/obj/app/src/features/setPlugin/cmd_setPlugin.o:(.text.set_swap_with_calldata_plugin_type)
c0de61fc c0de61fc        0     1                 $t.0
c0de61fd c0de61fd       10     1                 set_swap_with_calldata_plugin_type
c0de6208 c0de6208        0     1                 $d.1
c0de620c c0de620c      154     4         build/flex/obj/app/src/features/setPlugin/cmd_setPlugin.o:(.text.handleSetPlugin)
c0de620c c0de620c        0     1                 $t.2
c0de620d c0de620d      154     1                 handleSetPlugin
c0de6348 c0de6348        0     1                 $d.3
c0de6360 c0de6360       c4     2         build/flex/obj/app/src/features/signAuthorizationEIP7702/auth_7702.o:(.text.handle_auth_7702_struct)
c0de6360 c0de6360        0     1                 $t.0
c0de6361 c0de6361       c4     1                 handle_auth_7702_struct
c0de6424 c0de6424       1e     2         build/flex/obj/app/src/features/signAuthorizationEIP7702/auth_7702.o:(.text.verify_auth_7702_struct)
c0de6424 c0de6424        0     1                 $t.1
c0de6425 c0de6425       1e     1                 verify_auth_7702_struct
c0de6442 c0de6442        a     2         build/flex/obj/app/src/features/signAuthorizationEIP7702/auth_7702.o:(.text.OUTLINED_FUNCTION_0)
c0de6442 c0de6442        0     1                 $t.2
c0de6443 c0de6443        a     1                 OUTLINED_FUNCTION_0
c0de644c c0de644c       30     4         build/flex/obj/app/src/features/signAuthorizationEIP7702/commands_7702.o:(.text.hashRLP)
c0de644c c0de644c        0     1                 $t.0
c0de644d c0de644d       30     1                 hashRLP
c0de6478 c0de6478        0     1                 $d.1
c0de647c c0de647c       32     2         build/flex/obj/app/src/features/signAuthorizationEIP7702/commands_7702.o:(.text.hashRLP64)
c0de647c c0de647c        0     1                 $t.2
c0de647d c0de647d       32     1                 hashRLP64
c0de64b0 c0de64b0       6c     4         build/flex/obj/app/src/features/signAuthorizationEIP7702/commands_7702.o:(.text.handleSignEIP7702Authorization)
c0de64b0 c0de64b0        0     1                 $t.3
c0de64b1 c0de64b1       6c     1                 handleSignEIP7702Authorization
c0de6510 c0de6510        0     1                 $d.4
c0de651c c0de651c      230     4         build/flex/obj/app/src/features/signAuthorizationEIP7702/commands_7702.o:(.text.handleAuth7702TLV)
c0de651c c0de651c        0     1                 $t.5
c0de651d c0de651d      230     1                 handleAuth7702TLV
c0de6730 c0de6730        0     1                 $d.6
c0de674c c0de674c       48     2         build/flex/obj/app/src/features/signAuthorizationEIP7702/rlp_encode.o:(.text.rlpEncodeNumber)
c0de674c c0de674c        0     1                 $t.0
c0de674d c0de674d       48     1                 rlpEncodeNumber
c0de6794 c0de6794       18     2         build/flex/obj/app/src/features/signAuthorizationEIP7702/rlp_encode.o:(.text.rlpGetEncodedNumberLength)
c0de6794 c0de6794        0     1                 $t.1
c0de6795 c0de6795       18     1                 rlpGetEncodedNumberLength
c0de67ac c0de67ac       20     2         build/flex/obj/app/src/features/signAuthorizationEIP7702/rlp_encode.o:(.text.rlpGetSmallestNumber64EncodingSize)
c0de67ac c0de67ac        0     1                 $t.2
c0de67ad c0de67ad       20     1                 rlpGetSmallestNumber64EncodingSize
c0de67cc c0de67cc       22     2         build/flex/obj/app/src/features/signAuthorizationEIP7702/rlp_encode.o:(.text.rlpGetEncodedNumber64Length)
c0de67cc c0de67cc        0     1                 $t.3
c0de67cd c0de67cd       22     1                 rlpGetEncodedNumber64Length
c0de67ee c0de67ee       1e     2         build/flex/obj/app/src/features/signAuthorizationEIP7702/rlp_encode.o:(.text.rlpEncodeListHeader8)
c0de67ee c0de67ee        0     1                 $t.4
c0de67ef c0de67ef       1e     1                 rlpEncodeListHeader8
c0de680c c0de680c       74     4         build/flex/obj/app/src/features/signAuthorizationEIP7702/ui_common_7702.o:(.text.auth_7702_ok_cb)
c0de680c c0de680c        0     1                 $t.0
c0de680d c0de680d       74     1                 auth_7702_ok_cb
c0de6878 c0de6878        0     1                 $d.1
c0de6880 c0de6880       12     2         build/flex/obj/app/src/features/signAuthorizationEIP7702/ui_common_7702.o:(.text.auth_7702_cancel_cb)
c0de6880 c0de6880        0     1                 $t.2
c0de6881 c0de6881       12     1                 auth_7702_cancel_cb
c0de6894 c0de6894       2c     4         build/flex/obj/app/src/features/signAuthorizationEIP7702/whitelist_7702.o:(.text.get_delegate_name)
c0de6894 c0de6894        0     1                 $t.0
c0de6895 c0de6895       2c     1                 get_delegate_name
c0de68bc c0de68bc        0     1                 $d.1
c0de68c0 c0de68c0      2ac     4         build/flex/obj/app/src/features/signMessage/cmd_signMessage.o:(.text.handleSignPersonalMessage)
c0de68c0 c0de68c0        0     1                 $t.0
c0de68c1 c0de68c1      2ac     1                 handleSignPersonalMessage
c0de6b4c c0de6b4c        0     1                 $d.1
c0de6b6c c0de6b6c       20     4         build/flex/obj/app/src/features/signMessage/cmd_signMessage.o:(.text.set_idle)
c0de6b6c c0de6b6c        0     1                 $t.2
c0de6b6d c0de6b6d       20     1                 set_idle
c0de6b88 c0de6b88        0     1                 $d.3
c0de6b8c c0de6b8c       38     4         build/flex/obj/app/src/features/signMessage/cmd_signMessage.o:(.text.message_cleanup)
c0de6b8c c0de6b8c        0     1                 $t.4
c0de6b8d c0de6b8d       38     1                 message_cleanup
c0de6bc0 c0de6bc0        0     1                 $d.5
c0de6bc4 c0de6bc4       80     4         build/flex/obj/app/src/features/signMessage/ui_common_signMessage.o:(.text.io_seproxyhal_touch_signMessage_ok)
c0de6bc4 c0de6bc4        0     1                 $t.0
c0de6bc5 c0de6bc5       80     1                 io_seproxyhal_touch_signMessage_ok
c0de6c3c c0de6c3c        0     1                 $d.1
c0de6c44 c0de6c44       12     2         build/flex/obj/app/src/features/signMessage/ui_common_signMessage.o:(.text.io_seproxyhal_touch_signMessage_cancel)
c0de6c44 c0de6c44        0     1                 $t.2
c0de6c45 c0de6c45       12     1                 io_seproxyhal_touch_signMessage_cancel
c0de6c58 c0de6c58       20     4         build/flex/obj/app/src/features/signMessageEIP712/commands_712.o:(.text.handle_eip712_return_code)
c0de6c58 c0de6c58        0     1                 $t.0
c0de6c59 c0de6c59       20     1                 handle_eip712_return_code
c0de6c74 c0de6c74        0     1                 $d.1
c0de6c78 c0de6c78       4c     4         build/flex/obj/app/src/features/signMessageEIP712/commands_712.o:(.text.apdu_reply)
c0de6c78 c0de6c78        0     1                 $t.2
c0de6c79 c0de6c79       4c     1                 apdu_reply
c0de6cbc c0de6cbc        0     1                 $d.3
c0de6cc4 c0de6cc4       6c     4         build/flex/obj/app/src/features/signMessageEIP712/commands_712.o:(.text.handle_eip712_struct_def)
c0de6cc4 c0de6cc4        0     1                 $t.4
c0de6cc5 c0de6cc5       6c     1                 handle_eip712_struct_def
c0de6d24 c0de6d24        0     1                 $d.5
c0de6d30 c0de6d30       bc     4         build/flex/obj/app/src/features/signMessageEIP712/commands_712.o:(.text.handle_eip712_struct_impl)
c0de6d30 c0de6d30        0     1                 $t.6
c0de6d31 c0de6d31       bc     1                 handle_eip712_struct_impl
c0de6de4 c0de6de4        0     1                 $d.7
c0de6dec c0de6dec      1a0     4         build/flex/obj/app/src/features/signMessageEIP712/commands_712.o:(.text.handle_eip712_filtering)
c0de6dec c0de6dec        0     1                 $t.8
c0de6ded c0de6ded      1a0     1                 handle_eip712_filtering
c0de6f80 c0de6f80        0     1                 $d.9
c0de6f8c c0de6f8c       a0     4         build/flex/obj/app/src/features/signMessageEIP712/commands_712.o:(.text.handle_eip712_sign)
c0de6f8c c0de6f8c        0     1                 $t.10
c0de6f8d c0de6f8d       a0     1                 handle_eip712_sign
c0de7020 c0de7020        0     1                 $d.11
c0de702c c0de702c        c     2         build/flex/obj/app/src/features/signMessageEIP712/commands_712.o:(.text.OUTLINED_FUNCTION_0)
c0de702c c0de702c        0     1                 $t.12
c0de702d c0de702d        c     1                 OUTLINED_FUNCTION_0
c0de7038 c0de7038       80     4         build/flex/obj/app/src/features/signMessageEIP712/context_712.o:(.text.eip712_context_init)
c0de7038 c0de7038        0     1                 $t.0
c0de7039 c0de7039       80     1                 eip712_context_init
c0de70ac c0de70ac        0     1                 $d.1
c0de70b8 c0de70b8       38     4         build/flex/obj/app/src/features/signMessageEIP712/context_712.o:(.text.eip712_context_deinit)
c0de70b8 c0de70b8        0     1                 $t.2
c0de70b9 c0de70b9       38     1                 eip712_context_deinit
c0de70ec c0de70ec        0     1                 $d.3
c0de70f0 c0de70f0        8     2         build/flex/obj/app/src/features/signMessageEIP712/encode_field.o:(.text.encode_uint)
c0de70f0 c0de70f0        0     1                 $t.0
c0de70f1 c0de70f1        8     1                 encode_uint
c0de70f8 c0de70f8       70     4         build/flex/obj/app/src/features/signMessageEIP712/encode_field.o:(.text.field_encode)
c0de70f8 c0de70f8        0     1                 $t.1
c0de70f9 c0de70f9       70     1                 field_encode
c0de7164 c0de7164        0     1                 $d.2
c0de7168 c0de7168       24     4         build/flex/obj/app/src/features/signMessageEIP712/encode_field.o:(.text.encode_int)
c0de7168 c0de7168        0     1                 $t.3
c0de7169 c0de7169       24     1                 encode_int
c0de7188 c0de7188        0     1                 $d.4
c0de718c c0de718c        8     2         build/flex/obj/app/src/features/signMessageEIP712/encode_field.o:(.text.encode_bytes)
c0de718c c0de718c        0     1                 $t.5
c0de718d c0de718d        8     1                 encode_bytes
c0de7194 c0de7194       14     4         build/flex/obj/app/src/features/signMessageEIP712/encode_field.o:(.text.encode_boolean)
c0de7194 c0de7194        0     1                 $t.6
c0de7195 c0de7195       14     1                 encode_boolean
c0de71a4 c0de71a4        0     1                 $d.7
c0de71a8 c0de71a8       14     4         build/flex/obj/app/src/features/signMessageEIP712/encode_field.o:(.text.encode_address)
c0de71a8 c0de71a8        0     1                 $t.8
c0de71a9 c0de71a9       14     1                 encode_address
c0de71b8 c0de71b8        0     1                 $d.9
c0de71bc c0de71bc        c     2         build/flex/obj/app/src/features/signMessageEIP712/encode_field.o:(.text.OUTLINED_FUNCTION_0)
c0de71bc c0de71bc        0     1                 $t.10
c0de71bd c0de71bd        c     1                 OUTLINED_FUNCTION_0
c0de71c8 c0de71c8       4c     4         build/flex/obj/app/src/features/signMessageEIP712/field_hash.o:(.text.field_hash_init)
c0de71c8 c0de71c8        0     1                 $t.0
c0de71c9 c0de71c9       4c     1                 field_hash_init
c0de720c c0de720c        0     1                 $d.1
c0de7214 c0de7214       1c     4         build/flex/obj/app/src/features/signMessageEIP712/field_hash.o:(.text.field_hash_deinit)
c0de7214 c0de7214        0     1                 $t.2
c0de7215 c0de7215       1c     1                 field_hash_deinit
c0de722c c0de722c        0     1                 $d.3
c0de7230 c0de7230      284     4         build/flex/obj/app/src/features/signMessageEIP712/field_hash.o:(.text.field_hash)
c0de7230 c0de7230        0     1                 $t.4
c0de7231 c0de7231      284     1                 field_hash
c0de7498 c0de7498        0     1                 $d.5
c0de74b4 c0de74b4       b4     4         build/flex/obj/app/src/features/signMessageEIP712/filtering.o:(.text.filtering_message_info)
c0de74b4 c0de74b4        0     1                 $t.0
c0de74b5 c0de74b5       b4     1                 filtering_message_info
c0de755c c0de755c        0     1                 $d.1
c0de7568 c0de7568       64     4         build/flex/obj/app/src/features/signMessageEIP712/filtering.o:(.text.sig_verif_start)
c0de7568 c0de7568        0     1                 $t.2
c0de7569 c0de7569       64     1                 sig_verif_start
c0de75c4 c0de75c4        0     1                 $d.3
c0de75cc c0de75cc       50     4         build/flex/obj/app/src/features/signMessageEIP712/filtering.o:(.text.sig_verif_end)
c0de75cc c0de75cc        0     1                 $t.4
c0de75cd c0de75cd       50     1                 sig_verif_end
c0de7614 c0de7614        0     1                 $d.5
c0de761c c0de761c       e4     4         build/flex/obj/app/src/features/signMessageEIP712/filtering.o:(.text.filtering_discarded_path)
c0de761c c0de761c        0     1                 $t.6
c0de761d c0de761d       e4     1                 filtering_discarded_path
c0de76fc c0de76fc        0     1                 $d.7
c0de7700 c0de7700       60     4         build/flex/obj/app/src/features/signMessageEIP712/filtering.o:(.text.filtering_calldata_spender)
c0de7700 c0de7700        0     1                 $t.8
c0de7701 c0de7701       60     1                 filtering_calldata_spender
c0de775c c0de775c        0     1                 $d.9
c0de7760 c0de7760       dc     4         build/flex/obj/app/src/features/signMessageEIP712/filtering.o:(.text.hash_filtering_path)
c0de7760 c0de7760        0     1                 $t.10
c0de7761 c0de7761       dc     1                 hash_filtering_path
c0de7834 c0de7834        0     1                 $d.11
c0de783c c0de783c       60     4         build/flex/obj/app/src/features/signMessageEIP712/filtering.o:(.text.filtering_calldata_amount)
c0de783c c0de783c        0     1                 $t.12
c0de783d c0de783d       60     1                 filtering_calldata_amount
c0de7898 c0de7898        0     1                 $d.13
c0de789c c0de789c       60     4         build/flex/obj/app/src/features/signMessageEIP712/filtering.o:(.text.filtering_calldata_selector)
c0de789c c0de789c        0     1                 $t.14
c0de789d c0de789d       60     1                 filtering_calldata_selector
c0de78f8 c0de78f8        0     1                 $d.15
c0de78fc c0de78fc       60     4         build/flex/obj/app/src/features/signMessageEIP712/filtering.o:(.text.filtering_calldata_chain_id)
c0de78fc c0de78fc        0     1                 $t.16
c0de78fd c0de78fd       60     1                 filtering_calldata_chain_id
c0de7958 c0de7958        0     1                 $d.17
c0de795c c0de795c       60     4         build/flex/obj/app/src/features/signMessageEIP712/filtering.o:(.text.filtering_calldata_callee)
c0de795c c0de795c        0     1                 $t.18
c0de795d c0de795d       60     1                 filtering_calldata_callee
c0de79b8 c0de79b8        0     1                 $d.19
c0de79bc c0de79bc       60     4         build/flex/obj/app/src/features/signMessageEIP712/filtering.o:(.text.filtering_calldata_value)
c0de79bc c0de79bc        0     1                 $t.20
c0de79bd c0de79bd       60     1                 filtering_calldata_value
c0de7a18 c0de7a18        0     1                 $d.21
c0de7a1c c0de7a1c      1c8     4         build/flex/obj/app/src/features/signMessageEIP712/filtering.o:(.text.filtering_calldata_info)
c0de7a1c c0de7a1c        0     1                 $t.22
c0de7a1d c0de7a1d      1c8     1                 filtering_calldata_info
c0de7bd8 c0de7bd8        0     1                 $d.23
c0de7be4 c0de7be4      140     4         build/flex/obj/app/src/features/signMessageEIP712/filtering.o:(.text.filtering_trusted_name)
c0de7be4 c0de7be4        0     1                 $t.24
c0de7be5 c0de7be5      140     1                 filtering_trusted_name
c0de7d18 c0de7d18        0     1                 $d.25
c0de7d24 c0de7d24       34     2         build/flex/obj/app/src/features/signMessageEIP712/filtering.o:(.text.check_typename)
c0de7d24 c0de7d24        0     1                 $t.26
c0de7d25 c0de7d25       34     1                 check_typename
c0de7d58 c0de7d58       bc     4         build/flex/obj/app/src/features/signMessageEIP712/filtering.o:(.text.filtering_date_time)
c0de7d58 c0de7d58        0     1                 $t.27
c0de7d59 c0de7d59       bc     1                 filtering_date_time
c0de7e0c c0de7e0c        0     1                 $d.28
c0de7e14 c0de7e14       74     4         build/flex/obj/app/src/features/signMessageEIP712/filtering.o:(.text.filtering_amount_join_token)
c0de7e14 c0de7e14        0     1                 $t.29
c0de7e15 c0de7e15       74     1                 filtering_amount_join_token
c0de7e80 c0de7e80        0     1                 $d.30
c0de7e88 c0de7e88       f8     4         build/flex/obj/app/src/features/signMessageEIP712/filtering.o:(.text.filtering_amount_join_value)
c0de7e88 c0de7e88        0     1                 $t.31
c0de7e89 c0de7e89       f8     1                 filtering_amount_join_value
c0de7f74 c0de7f74        0     1                 $d.32
c0de7f80 c0de7f80       a8     4         build/flex/obj/app/src/features/signMessageEIP712/filtering.o:(.text.filtering_raw_field)
c0de7f80 c0de7f80        0     1                 $t.33
c0de7f81 c0de7f81       a8     1                 filtering_raw_field
c0de8024 c0de8024        0     1                 $d.34
c0de8028 c0de8028       12     2         build/flex/obj/app/src/features/signMessageEIP712/filtering.o:(.text.OUTLINED_FUNCTION_0)
c0de8028 c0de8028        0     1                 $t.35
c0de8029 c0de8029       12     1                 OUTLINED_FUNCTION_0
c0de803a c0de803a        c     2         build/flex/obj/app/src/features/signMessageEIP712/filtering.o:(.text.OUTLINED_FUNCTION_1)
c0de803a c0de803a        0     1                 $t.36
c0de803b c0de803b        c     1                 OUTLINED_FUNCTION_1
c0de8046 c0de8046        a     2         build/flex/obj/app/src/features/signMessageEIP712/filtering.o:(.text.OUTLINED_FUNCTION_2)
c0de8046 c0de8046        0     1                 $t.37
c0de8047 c0de8047        a     1                 OUTLINED_FUNCTION_2
c0de8050 c0de8050        a     2         build/flex/obj/app/src/features/signMessageEIP712/filtering.o:(.text.OUTLINED_FUNCTION_3)
c0de8050 c0de8050        0     1                 $t.38
c0de8051 c0de8051        a     1                 OUTLINED_FUNCTION_3
c0de805a c0de805a        a     2         build/flex/obj/app/src/features/signMessageEIP712/filtering.o:(.text.OUTLINED_FUNCTION_4)
c0de805a c0de805a        0     1                 $t.39
c0de805b c0de805b        a     1                 OUTLINED_FUNCTION_4
c0de8064 c0de8064        c     2         build/flex/obj/app/src/features/signMessageEIP712/filtering.o:(.text.OUTLINED_FUNCTION_5)
c0de8064 c0de8064        0     1                 $t.40
c0de8065 c0de8065        c     1                 OUTLINED_FUNCTION_5
c0de8070 c0de8070        8     2         build/flex/obj/app/src/features/signMessageEIP712/filtering.o:(.text.OUTLINED_FUNCTION_6)
c0de8070 c0de8070        0     1                 $t.41
c0de8071 c0de8071        8     1                 OUTLINED_FUNCTION_6
c0de8078 c0de8078        6     2         build/flex/obj/app/src/features/signMessageEIP712/filtering.o:(.text.OUTLINED_FUNCTION_7)
c0de8078 c0de8078        0     1                 $t.42
c0de8079 c0de8079        6     1                 OUTLINED_FUNCTION_7
c0de807e c0de807e        6     2         build/flex/obj/app/src/features/signMessageEIP712/filtering.o:(.text.OUTLINED_FUNCTION_8)
c0de807e c0de807e        0     1                 $t.43
c0de807f c0de807f        6     1                 OUTLINED_FUNCTION_8
c0de8084 c0de8084        6     2         build/flex/obj/app/src/features/signMessageEIP712/filtering.o:(.text.OUTLINED_FUNCTION_9)
c0de8084 c0de8084        0     1                 $t.44
c0de8085 c0de8085        6     1                 OUTLINED_FUNCTION_9
c0de808a c0de808a        8     2         build/flex/obj/app/src/features/signMessageEIP712/filtering.o:(.text.OUTLINED_FUNCTION_10)
c0de808a c0de808a        0     1                 $t.45
c0de808b c0de808b        8     1                 OUTLINED_FUNCTION_10
c0de8092 c0de8092        a     2         build/flex/obj/app/src/features/signMessageEIP712/filtering.o:(.text.OUTLINED_FUNCTION_11)
c0de8092 c0de8092        0     1                 $t.46
c0de8093 c0de8093        a     1                 OUTLINED_FUNCTION_11
c0de809c c0de809c        a     2         build/flex/obj/app/src/features/signMessageEIP712/filtering.o:(.text.OUTLINED_FUNCTION_12)
c0de809c c0de809c        0     1                 $t.47
c0de809d c0de809d        a     1                 OUTLINED_FUNCTION_12
c0de80a8 c0de80a8       b0     4         build/flex/obj/app/src/features/signMessageEIP712/format_hash_field_type.o:(.text.format_hash_field_type)
c0de80a8 c0de80a8        0     1                 $t.0
c0de80a9 c0de80a9       b0     1                 format_hash_field_type
c0de8154 c0de8154        0     1                 $d.1
c0de8158 c0de8158        a     2         build/flex/obj/app/src/features/signMessageEIP712/format_hash_field_type.o:(.text.OUTLINED_FUNCTION_0)
c0de8158 c0de8158        0     1                 $t.2
c0de8159 c0de8159        a     1                 OUTLINED_FUNCTION_0
c0de8162 c0de8162        a     2         build/flex/obj/app/src/features/signMessageEIP712/format_hash_field_type.o:(.text.OUTLINED_FUNCTION_1)
c0de8162 c0de8162        0     1                 $t.3
c0de8163 c0de8163        a     1                 OUTLINED_FUNCTION_1
c0de816c c0de816c        8     2         build/flex/obj/app/src/features/signMessageEIP712/path.o:(.text.path_get_nth_field)
c0de816c c0de816c        0     1                 $t.0
c0de816d c0de816d        8     1                 path_get_nth_field
c0de8174 c0de8174       14     4         build/flex/obj/app/src/features/signMessageEIP712/path.o:(.text.get_nth_field)
c0de8174 c0de8174        0     1                 $t.1
c0de8175 c0de8175       14     1                 get_nth_field
c0de8184 c0de8184        0     1                 $d.2
c0de8188 c0de8188       14     4         build/flex/obj/app/src/features/signMessageEIP712/path.o:(.text.path_backup_get_nth_field)
c0de8188 c0de8188        0     1                 $t.3
c0de8189 c0de8189       14     1                 path_backup_get_nth_field
c0de8198 c0de8198        0     1                 $d.4
c0de819c c0de819c       7a     2         build/flex/obj/app/src/features/signMessageEIP712/path.o:(.text.get_nth_field_from)
c0de819c c0de819c        0     1                 $t.5
c0de819d c0de819d       7a     1                 get_nth_field_from
c0de8218 c0de8218       34     4         build/flex/obj/app/src/features/signMessageEIP712/path.o:(.text.path_get_nth_field_to_last)
c0de8218 c0de8218        0     1                 $t.6
c0de8219 c0de8219       34     1                 path_get_nth_field_to_last
c0de8248 c0de8248        0     1                 $d.7
c0de824c c0de824c        6     2         build/flex/obj/app/src/features/signMessageEIP712/path.o:(.text.path_get_field)
c0de824c c0de824c        0     1                 $t.8
c0de824d c0de824d        6     1                 path_get_field
c0de8254 c0de8254       10     4         build/flex/obj/app/src/features/signMessageEIP712/path.o:(.text.get_field)
c0de8254 c0de8254        0     1                 $t.9
c0de8255 c0de8255       10     1                 get_field
c0de8260 c0de8260        0     1                 $d.10
c0de8264 c0de8264       18     4         build/flex/obj/app/src/features/signMessageEIP712/path.o:(.text.get_last_hash_ctx)
c0de8264 c0de8264        0     1                 $t.11
c0de8265 c0de8265       18     1                 get_last_hash_ctx
c0de8278 c0de8278        0     1                 $d.12
c0de827c c0de827c       b8     4         build/flex/obj/app/src/features/signMessageEIP712/path.o:(.text.path_set_root)
c0de827c c0de827c        0     1                 $t.13
c0de827d c0de827d       b8     1                 path_set_root
c0de8324 c0de8324        0     1                 $d.14
c0de8334 c0de8334       50     4         build/flex/obj/app/src/features/signMessageEIP712/path.o:(.text.push_new_hash_depth)
c0de8334 c0de8334        0     1                 $t.15
c0de8335 c0de8335       50     1                 push_new_hash_depth
c0de8380 c0de8380        0     1                 $d.16
c0de8384 c0de8384       28     2         build/flex/obj/app/src/features/signMessageEIP712/path.o:(.text.feed_last_hash_depth)
c0de8384 c0de8384        0     1                 $t.17
c0de8385 c0de8385       28     1                 feed_last_hash_depth
c0de83ac c0de83ac       20     4         build/flex/obj/app/src/features/signMessageEIP712/path.o:(.text.path_depth_list_push)
c0de83ac c0de83ac        0     1                 $t.18
c0de83ad c0de83ad       20     1                 path_depth_list_push
c0de83c8 c0de83c8        0     1                 $d.19
c0de83cc c0de83cc       b8     4         build/flex/obj/app/src/features/signMessageEIP712/path.o:(.text.path_update)
c0de83cc c0de83cc        0     1                 $t.20
c0de83cd c0de83cd       b8     1                 path_update
c0de8480 c0de8480        0     1                 $d.21
c0de8484 c0de8484      1b8     4         build/flex/obj/app/src/features/signMessageEIP712/path.o:(.text.path_new_array_depth)
c0de8484 c0de8484        0     1                 $t.22
c0de8485 c0de8485      1b8     1                 path_new_array_depth
c0de8634 c0de8634        0     1                 $d.23
c0de863c c0de863c       f4     4         build/flex/obj/app/src/features/signMessageEIP712/path.o:(.text.path_advance)
c0de863c c0de863c        0     1                 $t.24
c0de863d c0de863d       f4     1                 path_advance
c0de8728 c0de8728        0     1                 $d.25
c0de8730 c0de8730       18     4         build/flex/obj/app/src/features/signMessageEIP712/path.o:(.text.path_get_root_type)
c0de8730 c0de8730        0     1                 $t.26
c0de8731 c0de8731       18     1                 path_get_root_type
c0de8744 c0de8744        0     1                 $d.27
c0de8748 c0de8748       14     4         build/flex/obj/app/src/features/signMessageEIP712/path.o:(.text.path_get_root)
c0de8748 c0de8748        0     1                 $t.28
c0de8749 c0de8749       14     1                 path_get_root
c0de8758 c0de8758        0     1                 $d.29
c0de875c c0de875c       14     4         build/flex/obj/app/src/features/signMessageEIP712/path.o:(.text.path_get_depth_count)
c0de875c c0de875c        0     1                 $t.30
c0de875d c0de875d       14     1                 path_get_depth_count
c0de876c c0de876c        0     1                 $d.31
c0de8770 c0de8770       14     4         build/flex/obj/app/src/features/signMessageEIP712/path.o:(.text.path_backup_get_depth_count)
c0de8770 c0de8770        0     1                 $t.32
c0de8771 c0de8771       14     1                 path_backup_get_depth_count
c0de8780 c0de8780        0     1                 $d.33
c0de8784 c0de8784       cc     4         build/flex/obj/app/src/features/signMessageEIP712/path.o:(.text.path_exists_in_backup)
c0de8784 c0de8784        0     1                 $t.34
c0de8785 c0de8785       cc     1                 path_exists_in_backup
c0de884c c0de884c        0     1                 $d.35
c0de8850 c0de8850       70     4         build/flex/obj/app/src/features/signMessageEIP712/path.o:(.text.path_init)
c0de8850 c0de8850        0     1                 $t.36
c0de8851 c0de8851       70     1                 path_init
c0de88b8 c0de88b8        0     1                 $d.37
c0de88c0 c0de88c0       40     4         build/flex/obj/app/src/features/signMessageEIP712/path.o:(.text.path_deinit)
c0de88c0 c0de88c0        0     1                 $t.38
c0de88c1 c0de88c1       40     1                 path_deinit
c0de88f8 c0de88f8        0     1                 $d.39
c0de8900 c0de8900        8     2         build/flex/obj/app/src/features/signMessageEIP712/path.o:(.text.delete_hash_ctx)
c0de8900 c0de8900        0     1                 $t.40
c0de8901 c0de8901        8     1                 delete_hash_ctx
c0de8908 c0de8908       48     4         build/flex/obj/app/src/features/signMessageEIP712/path.o:(.text.finalize_hash_depth)
c0de8908 c0de8908        0     1                 $t.41
c0de8909 c0de8909       48     1                 finalize_hash_depth
c0de8948 c0de8948        0     1                 $d.42
c0de8950 c0de8950        8     2         build/flex/obj/app/src/features/signMessageEIP712/path.o:(.text.OUTLINED_FUNCTION_0)
c0de8950 c0de8950        0     1                 $t.43
c0de8951 c0de8951        8     1                 OUTLINED_FUNCTION_0
c0de8958 c0de8958        c     2         build/flex/obj/app/src/features/signMessageEIP712/path.o:(.text.OUTLINED_FUNCTION_1)
c0de8958 c0de8958        0     1                 $t.44
c0de8959 c0de8959        c     1                 OUTLINED_FUNCTION_1
c0de8964 c0de8964      10c     4         build/flex/obj/app/src/features/signMessageEIP712/schema_hash.o:(.text.compute_schema_hash)
c0de8964 c0de8964        0     1                 $t.0
c0de8965 c0de8965      10c     1                 compute_schema_hash
c0de8a58 c0de8a58        0     1                 $d.1
c0de8a70 c0de8a70        6     2         build/flex/obj/app/src/features/signMessageEIP712/schema_hash.o:(.text.OUTLINED_FUNCTION_0)
c0de8a70 c0de8a70        0     1                 $t.2
c0de8a71 c0de8a71        6     1                 OUTLINED_FUNCTION_0
c0de8a78 c0de8a78       d4     4         build/flex/obj/app/src/features/signMessageEIP712/sol_typenames.o:(.text.sol_typenames_init)
c0de8a78 c0de8a78        0     1                 $t.0
c0de8a79 c0de8a79       d4     1                 sol_typenames_init
c0de8b2c c0de8b2c        0     1                 $d.1
c0de8b4c c0de8b4c       3c     4         build/flex/obj/app/src/features/signMessageEIP712/sol_typenames.o:(.text.sol_typenames_deinit)
c0de8b4c c0de8b4c        0     1                 $t.2
c0de8b4d c0de8b4d       3c     1                 sol_typenames_deinit
c0de8b84 c0de8b84        0     1                 $d.3
c0de8b88 c0de8b88       3c     4         build/flex/obj/app/src/features/signMessageEIP712/sol_typenames.o:(.text.get_struct_field_sol_typename)
c0de8b88 c0de8b88        0     1                 $t.4
c0de8b89 c0de8b89       3c     1                 get_struct_field_sol_typename
c0de8bbc c0de8bbc        0     1                 $d.5
c0de8bc4 c0de8bc4       8c     4         build/flex/obj/app/src/features/signMessageEIP712/type_hash.o:(.text.type_hash)
c0de8bc4 c0de8bc4        0     1                 $t.0
c0de8bc5 c0de8bc5       8c     1                 type_hash
c0de8c44 c0de8c44        0     1                 $d.1
c0de8c50 c0de8c50       80     4         build/flex/obj/app/src/features/signMessageEIP712/type_hash.o:(.text.get_struct_dependencies)
c0de8c50 c0de8c50        0     1                 $t.2
c0de8c51 c0de8c51       80     1                 get_struct_dependencies
c0de8ccc c0de8ccc        0     1                 $d.3
c0de8cd0 c0de8cd0       3e     2         build/flex/obj/app/src/features/signMessageEIP712/type_hash.o:(.text.compare_struct_deps)
c0de8cd0 c0de8cd0        0     1                 $t.4
c0de8cd1 c0de8cd1       3e     1                 compare_struct_deps
c0de8d10 c0de8d10       88     4         build/flex/obj/app/src/features/signMessageEIP712/type_hash.o:(.text.encode_and_hash_type)
c0de8d10 c0de8d10        0     1                 $t.5
c0de8d11 c0de8d11       88     1                 encode_and_hash_type
c0de8d94 c0de8d94        0     1                 $d.6
c0de8d98 c0de8d98        8     2         build/flex/obj/app/src/features/signMessageEIP712/type_hash.o:(.text.delete_struct_dep)
c0de8d98 c0de8d98        0     1                 $t.7
c0de8d99 c0de8d99        8     1                 delete_struct_dep
c0de8da0 c0de8da0       1c     4         build/flex/obj/app/src/features/signMessageEIP712/typed_data.o:(.text.typed_data_init)
c0de8da0 c0de8da0        0     1                 $t.0
c0de8da1 c0de8da1       1c     1                 typed_data_init
c0de8db8 c0de8db8        0     1                 $d.1
c0de8dbc c0de8dbc       14     4         build/flex/obj/app/src/features/signMessageEIP712/typed_data.o:(.text.typed_data_deinit)
c0de8dbc c0de8dbc        0     1                 $t.2
c0de8dbd c0de8dbd       14     1                 typed_data_deinit
c0de8dc8 c0de8dc8        0     1                 $d.3
c0de8dd0 c0de8dd0       2c     4         build/flex/obj/app/src/features/signMessageEIP712/typed_data.o:(.text.delete_struct)
c0de8dd0 c0de8dd0        0     1                 $t.4
c0de8dd1 c0de8dd1       2c     1                 delete_struct
c0de8df8 c0de8df8        0     1                 $d.5
c0de8dfc c0de8dfc       16     2         build/flex/obj/app/src/features/signMessageEIP712/typed_data.o:(.text.get_struct_field_typename)
c0de8dfc c0de8dfc        0     1                 $t.6
c0de8dfd c0de8dfd       16     1                 get_struct_field_typename
c0de8e14 c0de8e14        c     4         build/flex/obj/app/src/features/signMessageEIP712/typed_data.o:(.text.get_struct_list)
c0de8e14 c0de8e14        0     1                 $t.7
c0de8e15 c0de8e15        c     1                 get_struct_list
c0de8e1c c0de8e1c        0     1                 $d.8
c0de8e20 c0de8e20       4c     4         build/flex/obj/app/src/features/signMessageEIP712/typed_data.o:(.text.get_structn)
c0de8e20 c0de8e20        0     1                 $t.9
c0de8e21 c0de8e21       4c     1                 get_structn
c0de8e64 c0de8e64        0     1                 $d.10
c0de8e6c c0de8e6c       70     4         build/flex/obj/app/src/features/signMessageEIP712/typed_data.o:(.text.set_struct_name)
c0de8e6c c0de8e6c        0     1                 $t.11
c0de8e6d c0de8e6d       70     1                 set_struct_name
c0de8ed0 c0de8ed0        0     1                 $d.12
c0de8edc c0de8edc      184     4         build/flex/obj/app/src/features/signMessageEIP712/typed_data.o:(.text.set_struct_field)
c0de8edc c0de8edc        0     1                 $t.13
c0de8edd c0de8edd      184     1                 set_struct_field
c0de9054 c0de9054        0     1                 $d.14
c0de9060 c0de9060       34     4         build/flex/obj/app/src/features/signMessageEIP712/typed_data.o:(.text.delete_field)
c0de9060 c0de9060        0     1                 $t.15
c0de9061 c0de9061       34     1                 delete_field
c0de9090 c0de9090        0     1                 $d.16
c0de9094 c0de9094        a     2         build/flex/obj/app/src/features/signMessageEIP712/typed_data.o:(.text.OUTLINED_FUNCTION_0)
c0de9094 c0de9094        0     1                 $t.17
c0de9095 c0de9095        a     1                 OUTLINED_FUNCTION_0
c0de90a0 c0de90a0       1c     4         build/flex/obj/app/src/features/signMessageEIP712/ui_logic.o:(.text.ui_712_finalize_field)
c0de90a0 c0de90a0        0     1                 $t.0
c0de90a1 c0de90a1       1c     1                 ui_712_finalize_field
c0de90b8 c0de90b8        0     1                 $d.1
c0de90bc c0de90bc       1c     4         build/flex/obj/app/src/features/signMessageEIP712/ui_logic.o:(.text.ui_712_field_shown)
c0de90bc c0de90bc        0     1                 $t.2
c0de90bd c0de90bd       1c     1                 ui_712_field_shown
c0de90d4 c0de90d4        0     1                 $d.3
c0de90d8 c0de90d8       58     4         build/flex/obj/app/src/features/signMessageEIP712/ui_logic.o:(.text.ui_712_next_field)
c0de90d8 c0de90d8        0     1                 $t.4
c0de90d9 c0de90d9       58     1                 ui_712_next_field
c0de9124 c0de9124        0     1                 $d.5
c0de9130 c0de9130       10     4         build/flex/obj/app/src/features/signMessageEIP712/ui_logic.o:(.text.ui_712_field_flags_reset)
c0de9130 c0de9130        0     1                 $t.6
c0de9131 c0de9131       10     1                 ui_712_field_flags_reset
c0de913c c0de913c        0     1                 $d.7
c0de9140 c0de9140       60     4         build/flex/obj/app/src/features/signMessageEIP712/ui_logic.o:(.text.ui_712_set_intent)
c0de9140 c0de9140        0     1                 $t.8
c0de9141 c0de9141       60     1                 ui_712_set_intent
c0de9198 c0de9198        0     1                 $d.9
c0de91a0 c0de91a0       48     4         build/flex/obj/app/src/features/signMessageEIP712/ui_logic.o:(.text.ui_712_set_title)
c0de91a0 c0de91a0        0     1                 $t.10
c0de91a1 c0de91a1       48     1                 ui_712_set_title
c0de91e4 c0de91e4        0     1                 $d.11
c0de91e8 c0de91e8       6c     4         build/flex/obj/app/src/features/signMessageEIP712/ui_logic.o:(.text.ui_712_set_value)
c0de91e8 c0de91e8        0     1                 $t.12
c0de91e9 c0de91e9       6c     1                 ui_712_set_value
c0de924c c0de924c        0     1                 $d.13
c0de9254 c0de9254       a4     4         build/flex/obj/app/src/features/signMessageEIP712/ui_logic.o:(.text.ui_712_redraw_generic_step)
c0de9254 c0de9254        0     1                 $t.14
c0de9255 c0de9255       a4     1                 ui_712_redraw_generic_step
c0de92e0 c0de92e0        0     1                 $d.15
c0de92f8 c0de92f8       38     4         build/flex/obj/app/src/features/signMessageEIP712/ui_logic.o:(.text.ui_712_review_struct)
c0de92f8 c0de92f8        0     1                 $t.16
c0de92f9 c0de92f9       38     1                 ui_712_review_struct
c0de9328 c0de9328        0     1                 $d.17
c0de9330 c0de9330       6c     4         build/flex/obj/app/src/features/signMessageEIP712/ui_logic.o:(.text.ui_712_review_network)
c0de9330 c0de9330        0     1                 $t.18
c0de9331 c0de9331       6c     1                 ui_712_review_network
c0de9390 c0de9390        0     1                 $d.19
c0de939c c0de939c       24     4         build/flex/obj/app/src/features/signMessageEIP712/ui_logic.o:(.text.amount_join_set_token_received)
c0de939c c0de939c        0     1                 $t.22
c0de939d c0de939d       24     1                 amount_join_set_token_received
c0de93bc c0de93bc        0     1                 $d.23
c0de93c0 c0de93c0       44     4         build/flex/obj/app/src/features/signMessageEIP712/ui_logic.o:(.text.get_amount_join)
c0de93c0 c0de93c0        0     1                 $t.24
c0de93c1 c0de93c1       44     1                 get_amount_join
c0de9400 c0de9400        0     1                 $d.25
c0de9404 c0de9404      784     4         build/flex/obj/app/src/features/signMessageEIP712/ui_logic.o:(.text.ui_712_feed_to_display)
c0de9404 c0de9404        0     1                 $t.26
c0de9405 c0de9405      784     1                 ui_712_feed_to_display
c0de9860 c0de9860        0     1                 $d.27
c0de9878 c0de9878        0     1                 $t.28
c0de9b54 c0de9b54        0     1                 $d.29
c0de9b88 c0de9b88       2c     4         build/flex/obj/app/src/features/signMessageEIP712/ui_logic.o:(.text.ui_712_end_sign)
c0de9b88 c0de9b88        0     1                 $t.30
c0de9b89 c0de9b89       2c     1                 ui_712_end_sign
c0de9bac c0de9bac        0     1                 $d.31
c0de9bb4 c0de9bb4       5c     4         build/flex/obj/app/src/features/signMessageEIP712/ui_logic.o:(.text.ui_712_init)
c0de9bb4 c0de9bb4        0     1                 $t.32
c0de9bb5 c0de9bb5       5c     1                 ui_712_init
c0de9c04 c0de9c04        0     1                 $d.33
c0de9c10 c0de9c10       8c     4         build/flex/obj/app/src/features/signMessageEIP712/ui_logic.o:(.text.ui_712_deinit)
c0de9c10 c0de9c10        0     1                 $t.34
c0de9c11 c0de9c11       8c     1                 ui_712_deinit
c0de9c88 c0de9c88        0     1                 $d.35
c0de9c9c c0de9c9c       10     4         build/flex/obj/app/src/features/signMessageEIP712/ui_logic.o:(.text.ui_712_set_filtering_mode)
c0de9c9c c0de9c9c        0     1                 $t.36
c0de9c9d c0de9c9d       10     1                 ui_712_set_filtering_mode
c0de9ca8 c0de9ca8        0     1                 $d.37
c0de9cac c0de9cac        4     2         build/flex/obj/app/src/features/signMessageEIP712/ui_logic.o:(.text.delete_filter_crc)
c0de9cac c0de9cac        0     1                 $t.38
c0de9cad c0de9cad        4     1                 delete_filter_crc
c0de9cb0 c0de9cb0       2c     4         build/flex/obj/app/src/features/signMessageEIP712/ui_logic.o:(.text.delete_ui_pair)
c0de9cb0 c0de9cb0        0     1                 $t.39
c0de9cb1 c0de9cb1       2c     1                 delete_ui_pair
c0de9cd8 c0de9cd8        0     1                 $d.40
c0de9cdc c0de9cdc        4     2         build/flex/obj/app/src/features/signMessageEIP712/ui_logic.o:(.text.delete_amount_join)
c0de9cdc c0de9cdc        0     1                 $t.41
c0de9cdd c0de9cdd        4     1                 delete_amount_join
c0de9ce0 c0de9ce0        4     2         build/flex/obj/app/src/features/signMessageEIP712/ui_logic.o:(.text.delete_calldata_info)
c0de9ce0 c0de9ce0        0     1                 $t.42
c0de9ce1 c0de9ce1        4     1                 delete_calldata_info
c0de9ce4 c0de9ce4       20     4         build/flex/obj/app/src/features/signMessageEIP712/ui_logic.o:(.text.ui_712_clear_discarded_path)
c0de9ce4 c0de9ce4        0     1                 $t.43
c0de9ce5 c0de9ce5       20     1                 ui_712_clear_discarded_path
c0de9d00 c0de9d00        0     1                 $d.44
c0de9d04 c0de9d04        e     2         build/flex/obj/app/src/features/signMessageEIP712/ui_logic.o:(.text.ui_712_approve)
c0de9d04 c0de9d04        0     1                 $t.45
c0de9d05 c0de9d05        e     1                 ui_712_approve
c0de9d12 c0de9d12        e     2         build/flex/obj/app/src/features/signMessageEIP712/ui_logic.o:(.text.ui_712_reject)
c0de9d12 c0de9d12        0     1                 $t.46
c0de9d13 c0de9d13        e     1                 ui_712_reject
c0de9d20 c0de9d20       6c     4         build/flex/obj/app/src/features/signMessageEIP712/ui_logic.o:(.text.ui_712_flag_field)
c0de9d20 c0de9d20        0     1                 $t.47
c0de9d21 c0de9d21       6c     1                 ui_712_flag_field
c0de9d88 c0de9d88        0     1                 $d.48
c0de9d8c c0de9d8c       10     4         build/flex/obj/app/src/features/signMessageEIP712/ui_logic.o:(.text.ui_712_get_filtering_mode)
c0de9d8c c0de9d8c        0     1                 $t.49
c0de9d8d c0de9d8d       10     1                 ui_712_get_filtering_mode
c0de9d98 c0de9d98        0     1                 $d.50
c0de9d9c c0de9d9c       10     4         build/flex/obj/app/src/features/signMessageEIP712/ui_logic.o:(.text.ui_712_set_filters_count)
c0de9d9c c0de9d9c        0     1                 $t.51
c0de9d9d c0de9d9d       10     1                 ui_712_set_filters_count
c0de9da8 c0de9da8        0     1                 $d.52
c0de9dac c0de9dac       1c     4         build/flex/obj/app/src/features/signMessageEIP712/ui_logic.o:(.text.ui_712_remaining_filters)
c0de9dac c0de9dac        0     1                 $t.53
c0de9dad c0de9dad       1c     1                 ui_712_remaining_filters
c0de9dc4 c0de9dc4        0     1                 $d.54
c0de9dc8 c0de9dc8       14     4         build/flex/obj/app/src/features/signMessageEIP712/ui_logic.o:(.text.ui_712_token_join_prepare_addr_check)
c0de9dc8 c0de9dc8        0     1                 $t.57
c0de9dc9 c0de9dc9       14     1                 ui_712_token_join_prepare_addr_check
c0de9dd8 c0de9dd8        0     1                 $d.58
c0de9ddc c0de9ddc       40     4         build/flex/obj/app/src/features/signMessageEIP712/ui_logic.o:(.text.ui_712_token_join_prepare_amount)
c0de9ddc c0de9ddc        0     1                 $t.59
c0de9ddd c0de9ddd       40     1                 ui_712_token_join_prepare_amount
c0de9e18 c0de9e18        0     1                 $d.60
c0de9e1c c0de9e1c       34     4         build/flex/obj/app/src/features/signMessageEIP712/ui_logic.o:(.text.ui_712_show_raw_key)
c0de9e1c c0de9e1c        0     1                 $t.61
c0de9e1d c0de9e1d       34     1                 ui_712_show_raw_key
c0de9e4c c0de9e4c        0     1                 $d.62
c0de9e50 c0de9e50       6c     4         build/flex/obj/app/src/features/signMessageEIP712/ui_logic.o:(.text.ui_712_push_new_filter_path)
c0de9e50 c0de9e50        0     1                 $t.63
c0de9e51 c0de9e51       6c     1                 ui_712_push_new_filter_path
c0de9eb4 c0de9eb4        0     1                 $d.64
c0de9ebc c0de9ebc       40     4         build/flex/obj/app/src/features/signMessageEIP712/ui_logic.o:(.text.ui_712_set_discarded_path)
c0de9ebc c0de9ebc        0     1                 $t.65
c0de9ebd c0de9ebd       40     1                 ui_712_set_discarded_path
c0de9ef8 c0de9ef8        0     1                 $d.66
c0de9efc c0de9efc       10     4         build/flex/obj/app/src/features/signMessageEIP712/ui_logic.o:(.text.ui_712_get_discarded_path)
c0de9efc c0de9efc        0     1                 $t.67
c0de9efd c0de9efd       10     1                 ui_712_get_discarded_path
c0de9f08 c0de9f08        0     1                 $d.68
c0de9f0c c0de9f0c       30     4         build/flex/obj/app/src/features/signMessageEIP712/ui_logic.o:(.text.ui_712_set_trusted_name_requirements)
c0de9f0c c0de9f0c        0     1                 $t.69
c0de9f0d c0de9f0d       30     1                 ui_712_set_trusted_name_requirements
c0de9f38 c0de9f38        0     1                 $d.70
c0de9f3c c0de9f3c      120     4         build/flex/obj/app/src/features/signMessageEIP712/ui_logic.o:(.text.ui_712_push_pairs)
c0de9f3c c0de9f3c        0     1                 $t.71
c0de9f3d c0de9f3d      120     1                 ui_712_push_pairs
c0dea040 c0dea040        0     1                 $d.72
c0dea05c c0dea05c       14     4         build/flex/obj/app/src/features/signMessageEIP712/ui_logic.o:(.text.add_calldata_info)
c0dea05c c0dea05c        0     1                 $t.73
c0dea05d c0dea05d       14     1                 add_calldata_info
c0dea06c c0dea06c        0     1                 $d.74
c0dea070 c0dea070       1c     4         build/flex/obj/app/src/features/signMessageEIP712/ui_logic.o:(.text.get_calldata_info)
c0dea070 c0dea070        0     1                 $t.75
c0dea071 c0dea071       1c     1                 get_calldata_info
c0dea088 c0dea088        0     1                 $d.76
c0dea08c c0dea08c       14     4         build/flex/obj/app/src/features/signMessageEIP712/ui_logic.o:(.text.get_current_calldata_info)
c0dea08c c0dea08c        0     1                 $t.77
c0dea08d c0dea08d       14     1                 get_current_calldata_info
c0dea09c c0dea09c        0     1                 $d.78
c0dea0a0 c0dea0a0       20     4         build/flex/obj/app/src/features/signMessageEIP712/ui_logic.o:(.text.all_calldata_info_processed)
c0dea0a0 c0dea0a0        0     1                 $t.79
c0dea0a1 c0dea0a1       20     1                 all_calldata_info_processed
c0dea0bc c0dea0bc        0     1                 $d.80
c0dea0c0 c0dea0c0       20     4         build/flex/obj/app/src/features/signMessageEIP712/ui_logic.o:(.text.calldata_info_set_state)
c0dea0c0 c0dea0c0        0     1                 $t.81
c0dea0c1 c0dea0c1       20     1                 calldata_info_set_state
c0dea0dc c0dea0dc        0     1                 $d.82
c0dea0e0 c0dea0e0       42     2         build/flex/obj/app/src/features/signMessageEIP712/ui_logic.o:(.text.calldata_info_all_received)
c0dea0e0 c0dea0e0        0     1                 $t.83
c0dea0e1 c0dea0e1       42     1                 calldata_info_all_received
c0dea124 c0dea124       38     4         build/flex/obj/app/src/features/signMessageEIP712/ui_logic.o:(.text.ui_712_set_intent_field)
c0dea124 c0dea124        0     1                 $t.84
c0dea125 c0dea125       38     1                 ui_712_set_intent_field
c0dea158 c0dea158        0     1                 $d.85
c0dea15c c0dea15c        e     2         build/flex/obj/app/src/features/signMessageEIP712/ui_logic.o:(.text.OUTLINED_FUNCTION_0)
c0dea15c c0dea15c        0     1                 $t.86
c0dea15d c0dea15d        e     1                 OUTLINED_FUNCTION_0
c0dea16a c0dea16a       12     2         build/flex/obj/app/src/features/signMessageEIP712/ui_logic.o:(.text.OUTLINED_FUNCTION_1)
c0dea16a c0dea16a        0     1                 $t.87
c0dea16b c0dea16b       12     1                 OUTLINED_FUNCTION_1
c0dea17c c0dea17c        8     2         build/flex/obj/app/src/features/signMessageEIP712/ui_logic.o:(.text.OUTLINED_FUNCTION_2)
c0dea17c c0dea17c        0     1                 $t.88
c0dea17d c0dea17d        8     1                 OUTLINED_FUNCTION_2
c0dea184 c0dea184        c     2         build/flex/obj/app/src/features/signMessageEIP712/ui_logic.o:(.text.OUTLINED_FUNCTION_3)
c0dea184 c0dea184        0     1                 $t.89
c0dea185 c0dea185        c     1                 OUTLINED_FUNCTION_3
c0dea190 c0dea190        6     2         build/flex/obj/app/src/features/signMessageEIP712/ui_logic.o:(.text.OUTLINED_FUNCTION_4)
c0dea190 c0dea190        0     1                 $t.90
c0dea191 c0dea191        6     1                 OUTLINED_FUNCTION_4
c0dea196 c0dea196        8     2         build/flex/obj/app/src/features/signMessageEIP712/ui_logic.o:(.text.OUTLINED_FUNCTION_5)
c0dea196 c0dea196        0     1                 $t.91
c0dea197 c0dea197        8     1                 OUTLINED_FUNCTION_5
c0dea19e c0dea19e        c     2         build/flex/obj/app/src/features/signMessageEIP712/ui_logic.o:(.text.OUTLINED_FUNCTION_6)
c0dea19e c0dea19e        0     1                 $t.92
c0dea19f c0dea19f        c     1                 OUTLINED_FUNCTION_6
c0dea1aa c0dea1aa        a     2         build/flex/obj/app/src/features/signMessageEIP712/ui_logic.o:(.text.OUTLINED_FUNCTION_7)
c0dea1aa c0dea1aa        0     1                 $t.93
c0dea1ab c0dea1ab        a     1                 OUTLINED_FUNCTION_7
c0dea1b4 c0dea1b4        a     2         build/flex/obj/app/src/features/signMessageEIP712/ui_logic.o:(.text.OUTLINED_FUNCTION_8)
c0dea1b4 c0dea1b4        0     1                 $t.94
c0dea1b5 c0dea1b5        a     1                 OUTLINED_FUNCTION_8
c0dea1be c0dea1be        a     2         build/flex/obj/app/src/features/signMessageEIP712/ui_logic.o:(.text.OUTLINED_FUNCTION_9)
c0dea1be c0dea1be        0     1                 $t.95
c0dea1bf c0dea1bf        a     1                 OUTLINED_FUNCTION_9
c0dea1c8 c0dea1c8        6     2         build/flex/obj/app/src/features/signMessageEIP712/ui_logic.o:(.text.OUTLINED_FUNCTION_10)
c0dea1c8 c0dea1c8        0     1                 $t.96
c0dea1c9 c0dea1c9        6     1                 OUTLINED_FUNCTION_10
c0dea1d0 c0dea1d0       f4     4         build/flex/obj/app/src/features/signMessageEIP712_common/common_712.o:(.text.ui_712_approve_cb)
c0dea1d0 c0dea1d0        0     1                 $t.0
c0dea1d1 c0dea1d1       f4     1                 ui_712_approve_cb
c0dea2b4 c0dea2b4        0     1                 $d.1
c0dea2c4 c0dea2c4        e     2         build/flex/obj/app/src/features/signMessageEIP712_common/common_712.o:(.text.ui_712_reject_cb)
c0dea2c4 c0dea2c4        0     1                 $t.2
c0dea2c5 c0dea2c5        e     1                 ui_712_reject_cb
c0dea2d4 c0dea2d4       74     4         build/flex/obj/app/src/features/signMessageEIP712_common/common_712.o:(.text.eip712_format_hash)
c0dea2d4 c0dea2d4        0     1                 $t.3
c0dea2d5 c0dea2d5       74     1                 eip712_format_hash
c0dea334 c0dea334        0     1                 $d.4
c0dea348 c0dea348       20     4         build/flex/obj/app/src/features/signMessageEIP712_common/common_712.o:(.text.format_hash)
c0dea348 c0dea348        0     1                 $t.5
c0dea349 c0dea349       20     1                 format_hash
c0dea364 c0dea364        0     1                 $d.6
c0dea368 c0dea368       48     4         build/flex/obj/app/src/features/signMessageEIP712_common/common_712.o:(.text.ui_712_start)
c0dea368 c0dea368        0     1                 $t.7
c0dea369 c0dea369       48     1                 ui_712_start
c0dea3a4 c0dea3a4        0     1                 $d.8
c0dea3b0 c0dea3b0        6     2         build/flex/obj/app/src/features/signMessageEIP712_common/common_712.o:(.text.OUTLINED_FUNCTION_0)
c0dea3b0 c0dea3b0        0     1                 $t.9
c0dea3b1 c0dea3b1        6     1                 OUTLINED_FUNCTION_0
c0dea3b8 c0dea3b8       90     4         build/flex/obj/app/src/features/signMessageEIP712_v0/cmd_signMessage712.o:(.text.handleSignEIP712Message_v0)
c0dea3b8 c0dea3b8        0     1                 $t.0
c0dea3b9 c0dea3b9       90     1                 handleSignEIP712Message_v0
c0dea43c c0dea43c        0     1                 $d.1
c0dea448 c0dea448       54     4         build/flex/obj/app/src/features/signTx/cmd_signTx.o:(.text.handle_parsing_status)
c0dea448 c0dea448        0     1                 $t.0
c0dea449 c0dea449       54     1                 handle_parsing_status
c0dea490 c0dea490        0     1                 $d.1
c0dea49c c0dea49c      1d0     4         build/flex/obj/app/src/features/signTx/cmd_signTx.o:(.text.handleSign)
c0dea49c c0dea49c        0     1                 $t.2
c0dea49d c0dea49d      1d0     1                 handleSign
c0dea654 c0dea654        0     1                 $d.3
c0dea66c c0dea66c       2e     2         build/flex/obj/app/src/features/signTx/ethUstream.o:(.text.init_tx)
c0dea66c c0dea66c        0     1                 $t.0
c0dea66d c0dea66d       2e     1                 init_tx
c0dea69a c0dea69a       64     2         build/flex/obj/app/src/features/signTx/ethUstream.o:(.text.copyTxData)
c0dea69a c0dea69a        0     1                 $t.1
c0dea69b c0dea69b       64     1                 copyTxData
c0dea6fe c0dea6fe        8     2         build/flex/obj/app/src/features/signTx/ethUstream.o:(.text.process_tx)
c0dea6fe c0dea6fe        0     1                 $t.2
c0dea6ff c0dea6ff        8     1                 process_tx
c0dea708 c0dea708      32c     4         build/flex/obj/app/src/features/signTx/ethUstream.o:(.text.processTxInternal)
c0dea708 c0dea708        0     1                 $t.3
c0dea709 c0dea709      32c     1                 processTxInternal
c0deaa2c c0deaa2c        0     1                 $d.4
c0deaa34 c0deaa34        4     2         build/flex/obj/app/src/features/signTx/ethUstream.o:(.text.continueTx)
c0deaa34 c0deaa34        0     1                 $t.5
c0deaa35 c0deaa35        4     1                 continueTx
c0deaa38 c0deaa38       1c     2         build/flex/obj/app/src/features/signTx/ethUstream.o:(.text.processContent)
c0deaa38 c0deaa38        0     1                 $t.6
c0deaa39 c0deaa39       1c     1                 processContent
c0deaa54 c0deaa54       44     2         build/flex/obj/app/src/features/signTx/ethUstream.o:(.text.processNonce)
c0deaa54 c0deaa54        0     1                 $t.7
c0deaa55 c0deaa55       44     1                 processNonce
c0deaa98 c0deaa98       46     2         build/flex/obj/app/src/features/signTx/ethUstream.o:(.text.processGasprice)
c0deaa98 c0deaa98        0     1                 $t.8
c0deaa99 c0deaa99       46     1                 processGasprice
c0deaade c0deaade       44     2         build/flex/obj/app/src/features/signTx/ethUstream.o:(.text.processStartGas)
c0deaade c0deaade        0     1                 $t.9
c0deaadf c0deaadf       44     1                 processStartGas
c0deab22 c0deab22       44     2         build/flex/obj/app/src/features/signTx/ethUstream.o:(.text.processTo)
c0deab22 c0deab22        0     1                 $t.10
c0deab23 c0deab23       44     1                 processTo
c0deab66 c0deab66       44     2         build/flex/obj/app/src/features/signTx/ethUstream.o:(.text.processValue)
c0deab66 c0deab66        0     1                 $t.11
c0deab67 c0deab67       44     1                 processValue
c0deabac c0deabac       c4     4         build/flex/obj/app/src/features/signTx/ethUstream.o:(.text.processData)
c0deabac c0deabac        0     1                 $t.12
c0deabad c0deabad       c4     1                 processData
c0deac6c c0deac6c        0     1                 $d.13
c0deac70 c0deac70       3a     2         build/flex/obj/app/src/features/signTx/ethUstream.o:(.text.processAndDiscard)
c0deac70 c0deac70        0     1                 $t.14
c0deac71 c0deac71       3a     1                 processAndDiscard
c0deacaa c0deacaa       44     2         build/flex/obj/app/src/features/signTx/ethUstream.o:(.text.processChainID)
c0deacaa c0deacaa        0     1                 $t.15
c0deacab c0deacab       44     1                 processChainID
c0deacee c0deacee       3a     2         build/flex/obj/app/src/features/signTx/ethUstream.o:(.text.processAccessList)
c0deacee c0deacee        0     1                 $t.16
c0deacef c0deacef       3a     1                 processAccessList
c0dead28 c0dead28        8     2         build/flex/obj/app/src/features/signTx/ethUstream.o:(.text.OUTLINED_FUNCTION_0)
c0dead28 c0dead28        0     1                 $t.17
c0dead29 c0dead29        8     1                 OUTLINED_FUNCTION_0
c0dead30 c0dead30        a     2         build/flex/obj/app/src/features/signTx/ethUstream.o:(.text.OUTLINED_FUNCTION_1)
c0dead30 c0dead30        0     1                 $t.18
c0dead31 c0dead31        a     1                 OUTLINED_FUNCTION_1
c0dead3a c0dead3a        8     2         build/flex/obj/app/src/features/signTx/ethUstream.o:(.text.OUTLINED_FUNCTION_2)
c0dead3a c0dead3a        0     1                 $t.19
c0dead3b c0dead3b        8     1                 OUTLINED_FUNCTION_2
c0dead42 c0dead42        6     2         build/flex/obj/app/src/features/signTx/ethUstream.o:(.text.OUTLINED_FUNCTION_3)
c0dead42 c0dead42        0     1                 $t.20
c0dead43 c0dead43        6     1                 OUTLINED_FUNCTION_3
c0dead48 c0dead48        8     2         build/flex/obj/app/src/features/signTx/ethUstream.o:(.text.OUTLINED_FUNCTION_4)
c0dead48 c0dead48        0     1                 $t.21
c0dead49 c0dead49        8     1                 OUTLINED_FUNCTION_4
c0dead50 c0dead50        a     2         build/flex/obj/app/src/features/signTx/ethUstream.o:(.text.OUTLINED_FUNCTION_5)
c0dead50 c0dead50        0     1                 $t.22
c0dead51 c0dead51        a     1                 OUTLINED_FUNCTION_5
c0dead5c c0dead5c      2d8     4         build/flex/obj/app/src/features/signTx/logic_signTx.o:(.text.customProcessor)
c0dead5c c0dead5c        0     1                 $t.0
c0dead5d c0dead5d      2d8     1                 customProcessor
c0deb014 c0deb014        0     1                 $d.1
c0deb034 c0deb034       ec     4         build/flex/obj/app/src/features/signTx/logic_signTx.o:(.text.max_transaction_fee_to_string)
c0deb034 c0deb034        0     1                 $t.2
c0deb035 c0deb035       ec     1                 max_transaction_fee_to_string
c0deb118 c0deb118        0     1                 $d.3
c0deb120 c0deb120       a4     4         build/flex/obj/app/src/features/signTx/logic_signTx.o:(.text.finalize_parsing)
c0deb120 c0deb120        0     1                 $t.4
c0deb121 c0deb121       a4     1                 finalize_parsing
c0deb1b0 c0deb1b0        0     1                 $d.5
c0deb1c4 c0deb1c4      350     4         build/flex/obj/app/src/features/signTx/logic_signTx.o:(.text.finalize_parsing_helper)
c0deb1c4 c0deb1c4        0     1                 $t.6
c0deb1c5 c0deb1c5      350     1                 finalize_parsing_helper
c0deb4e0 c0deb4e0        0     1                 $d.7
c0deb514 c0deb514        e     2         build/flex/obj/app/src/features/signTx/logic_signTx.o:(.text.report_finalize_error)
c0deb514 c0deb514        0     1                 $t.8
c0deb515 c0deb515        e     1                 report_finalize_error
c0deb522 c0deb522        8     2         build/flex/obj/app/src/features/signTx/logic_signTx.o:(.text.OUTLINED_FUNCTION_0)
c0deb522 c0deb522        0     1                 $t.9
c0deb523 c0deb523        8     1                 OUTLINED_FUNCTION_0
c0deb52a c0deb52a        8     2         build/flex/obj/app/src/features/signTx/logic_signTx.o:(.text.OUTLINED_FUNCTION_1)
c0deb52a c0deb52a        0     1                 $t.10
c0deb52b c0deb52b        8     1                 OUTLINED_FUNCTION_1
c0deb532 c0deb532       42     2         build/flex/obj/app/src/features/signTx/rlp_utils.o:(.text.rlpCanDecode)
c0deb532 c0deb532        0     1                 $t.0
c0deb533 c0deb533       42     1                 rlpCanDecode
c0deb574 c0deb574       b2     2         build/flex/obj/app/src/features/signTx/rlp_utils.o:(.text.rlpDecodeLength)
c0deb574 c0deb574        0     1                 $t.1
c0deb575 c0deb575       b2     1                 rlpDecodeLength
c0deb628 c0deb628       ec     4         build/flex/obj/app/src/features/signTx/ui_common_signTx.o:(.text.io_seproxyhal_touch_tx_ok)
c0deb628 c0deb628        0     1                 $t.0
c0deb629 c0deb629       ec     1                 io_seproxyhal_touch_tx_ok
c0deb700 c0deb700        0     1                 $d.1
c0deb714 c0deb714       12     2         build/flex/obj/app/src/features/signTx/ui_common_signTx.o:(.text.io_seproxyhal_touch_tx_cancel)
c0deb714 c0deb714        0     1                 $t.2
c0deb715 c0deb715       12     1                 io_seproxyhal_touch_tx_cancel
c0deb728 c0deb728       34     4         build/flex/obj/app/src/features/signTx/ui_common_signTx.o:(.text.io_seproxyhal_touch_data_ok)
c0deb728 c0deb728        0     1                 $t.3
c0deb729 c0deb729       34     1                 io_seproxyhal_touch_data_ok
c0deb758 c0deb758        0     1                 $d.4
c0deb75c c0deb75c       12     2         build/flex/obj/app/src/features/signTx/ui_common_signTx.o:(.text.io_seproxyhal_touch_data_cancel)
c0deb75c c0deb75c        0     1                 $t.5
c0deb75d c0deb75d       12     1                 io_seproxyhal_touch_data_cancel
c0deb76e c0deb76e       64     2         build/flex/obj/app/src/handle_check_address.o:(.text.handle_check_address)
c0deb76e c0deb76e        0     1                 $t.0
c0deb76f c0deb76f       64     1                 handle_check_address
c0deb7d2 c0deb7d2       6a     2         build/flex/obj/app/src/handle_get_printable_amount.o:(.text.handle_get_printable_amount)
c0deb7d2 c0deb7d2        0     1                 $t.0
c0deb7d3 c0deb7d3       6a     1                 handle_get_printable_amount
c0deb83c c0deb83c      188     4         build/flex/obj/app/src/handle_swap_sign_transaction.o:(.text.copy_transaction_parameters)
c0deb83c c0deb83c        0     1                 $t.0
c0deb83d c0deb83d      188     1                 copy_transaction_parameters
c0deb9b0 c0deb9b0        0     1                 $d.1
c0deb9c4 c0deb9c4       2c     4         build/flex/obj/app/src/handle_swap_sign_transaction.o:(.text.swap_finalize_exchange_sign_transaction)
c0deb9c4 c0deb9c4        0     1                 $t.2
c0deb9c5 c0deb9c5       2c     1                 swap_finalize_exchange_sign_transaction
c0deb9e8 c0deb9e8        0     1                 $d.3
c0deb9f0 c0deb9f0       4c     4         build/flex/obj/app/src/handle_swap_sign_transaction.o:(.text.handle_swap_sign_transaction)
c0deb9f0 c0deb9f0        0     1                 $t.4
c0deb9f1 c0deb9f1       4c     1                 handle_swap_sign_transaction
c0deba28 c0deba28        0     1                 $d.5
c0deba3c c0deba3c       24     2         build/flex/obj/app/src/hash_bytes.o:(.text.hash_nbytes)
c0deba3c c0deba3c        0     1                 $t.0
c0deba3d c0deba3d       24     1                 hash_nbytes
c0deba60 c0deba60       14     2         build/flex/obj/app/src/hash_bytes.o:(.text.hash_byte)
c0deba60 c0deba60        0     1                 $t.1
c0deba61 c0deba61       14     1                 hash_byte
c0deba74 c0deba74       88     2         build/flex/obj/app/src/ledger_pki.o:(.text.check_signature_with_pubkey)
c0deba74 c0deba74        0     1                 $t.0
c0deba75 c0deba75       88     1                 check_signature_with_pubkey
c0debafc c0debafc        6     2         build/flex/obj/app/src/list.o:(.text.flist_pop_front)
c0debafc c0debafc        0     1                 $t.1
c0debafd c0debafd        6     1                 flist_pop_front
c0debb02 c0debb02       20     2         build/flex/obj/app/src/list.o:(.text.pop_front_internal)
c0debb02 c0debb02        0     1                 $t.2
c0debb03 c0debb03       20     1                 pop_front_internal
c0debb22 c0debb22        6     2         build/flex/obj/app/src/list.o:(.text.flist_push_back)
c0debb22 c0debb22        0     1                 $t.3
c0debb23 c0debb23        6     1                 flist_push_back
c0debb28 c0debb28       24     2         build/flex/obj/app/src/list.o:(.text.push_back_internal)
c0debb28 c0debb28        0     1                 $t.4
c0debb29 c0debb29       24     1                 push_back_internal
c0debb4c c0debb4c       2c     2         build/flex/obj/app/src/list.o:(.text.flist_pop_back)
c0debb4c c0debb4c        0     1                 $t.5
c0debb4d c0debb4d       2c     1                 flist_pop_back
c0debb78 c0debb78        6     2         build/flex/obj/app/src/list.o:(.text.flist_remove)
c0debb78 c0debb78        0     1                 $t.7
c0debb79 c0debb79        6     1                 flist_remove
c0debb7e c0debb7e       3c     2         build/flex/obj/app/src/list.o:(.text.remove_internal)
c0debb7e c0debb7e        0     1                 $t.8
c0debb7f c0debb7f       3c     1                 remove_internal
c0debbba c0debbba       22     2         build/flex/obj/app/src/list.o:(.text.flist_clear)
c0debbba c0debbba        0     1                 $t.11
c0debbbb c0debbbb       22     1                 flist_clear
c0debbdc c0debbdc       12     2         build/flex/obj/app/src/list.o:(.text.flist_size)
c0debbdc c0debbdc        0     1                 $t.12
c0debbdd c0debbdd       12     1                 flist_size
c0debbee c0debbee        6     2         build/flex/obj/app/src/list.o:(.text.flist_sort)
c0debbee c0debbee        0     1                 $t.14
c0debbef c0debbef        6     1                 flist_sort
c0debbf4 c0debbf4       50     2         build/flex/obj/app/src/list.o:(.text.sort_internal)
c0debbf4 c0debbf4        0     1                 $t.15
c0debbf5 c0debbf5       50     1                 sort_internal
c0debc44 c0debc44        6     2         build/flex/obj/app/src/list.o:(.text.list_push_back)
c0debc44 c0debc44        0     1                 $t.22
c0debc45 c0debc45        6     1                 list_push_back
c0debc4a c0debc4a        4     2         build/flex/obj/app/src/list.o:(.text.list_pop_back)
c0debc4a c0debc4a        0     1                 $t.23
c0debc4b c0debc4b        4     1                 list_pop_back
c0debc4e c0debc4e        6     2         build/flex/obj/app/src/list.o:(.text.list_remove)
c0debc4e c0debc4e        0     1                 $t.26
c0debc4f c0debc4f        6     1                 list_remove
c0debc54 c0debc54        4     2         build/flex/obj/app/src/list.o:(.text.list_clear)
c0debc54 c0debc54        0     1                 $t.28
c0debc55 c0debc55        4     1                 list_clear
c0debc58 c0debc58        4     2         build/flex/obj/app/src/list.o:(.text.list_size)
c0debc58 c0debc58        0     1                 $t.29
c0debc59 c0debc59        4     1                 list_size
c0debc5c c0debc5c       b0     4         build/flex/obj/app/src/main.o:(.text.reset_app_context)
c0debc5c c0debc5c        0     1                 $t.0
c0debc5d c0debc5d       b0     1                 reset_app_context
c0debce0 c0debce0        0     1                 $d.1
c0debd0c c0debd0c        e     2         build/flex/obj/app/src/main.o:(.text.app_quit)
c0debd0c c0debd0c        0     1                 $t.2
c0debd0d c0debd0d        e     1                 app_quit
c0debd1c c0debd1c       34     4         build/flex/obj/app/src/main.o:(.text.io_seproxyhal_send_status)
c0debd1c c0debd1c        0     1                 $t.3
c0debd1d c0debd1d       34     1                 io_seproxyhal_send_status
c0debd4c c0debd4c        0     1                 $d.4
c0debd50 c0debd50       42     2         build/flex/obj/app/src/main.o:(.text.parseBip32)
c0debd50 c0debd50        0     1                 $t.5
c0debd51 c0debd51       42     1                 parseBip32
c0debd94 c0debd94      37c     4         build/flex/obj/app/src/main.o:(.text.app_main)
c0debd94 c0debd94        0     1                 $t.6
c0debd95 c0debd95      37c     1                 app_main
c0dec104 c0dec104        0     1                 $d.7
c0dec110 c0dec110       68     4         build/flex/obj/app/src/main.o:(.text.coin_main)
c0dec110 c0dec110        0     1                 $t.8
c0dec111 c0dec111       68     1                 coin_main
c0dec16c c0dec16c        0     1                 $d.9
c0dec178 c0dec178       32     2         build/flex/obj/app/src/main.o:(.text.app_init)
c0dec178 c0dec178        0     1                 $t.10
c0dec179 c0dec179       32     1                 app_init
c0dec1ac c0dec1ac       64     4         build/flex/obj/app/src/main.o:(.text.library_main)
c0dec1ac c0dec1ac        0     1                 $t.11
c0dec1ad c0dec1ad       64     1                 library_main
c0dec20c c0dec20c        0     1                 $d.12
c0dec210 c0dec210       30     2         build/flex/obj/app/src/main.o:(.text.ethereum_main)
c0dec210 c0dec210        0     1                 $t.15
c0dec211 c0dec211       30     1                 ethereum_main
c0dec240 c0dec240       3c     4         build/flex/obj/app/src/main.o:(.text.storage_init)
c0dec240 c0dec240        0     1                 $t.17
c0dec241 c0dec241       3c     1                 storage_init
c0dec274 c0dec274        0     1                 $d.18
c0dec27c c0dec27c       10     2         build/flex/obj/app/src/main.o:(.text.OUTLINED_FUNCTION_0)
c0dec27c c0dec27c        0     1                 $t.19
c0dec27d c0dec27d       10     1                 OUTLINED_FUNCTION_0
c0dec28c c0dec28c       10     2         build/flex/obj/app/src/main.o:(.text.OUTLINED_FUNCTION_1)
c0dec28c c0dec28c        0     1                 $t.20
c0dec28d c0dec28d       10     1                 OUTLINED_FUNCTION_1
c0dec29c c0dec29c        c     2         build/flex/obj/app/src/main.o:(.text.OUTLINED_FUNCTION_2)
c0dec29c c0dec29c        0     1                 $t.21
c0dec29d c0dec29d        c     1                 OUTLINED_FUNCTION_2
c0dec2a8 c0dec2a8        8     2         build/flex/obj/app/src/main.o:(.text.OUTLINED_FUNCTION_3)
c0dec2a8 c0dec2a8        0     1                 $t.22
c0dec2a9 c0dec2a9        8     1                 OUTLINED_FUNCTION_3
c0dec2b0 c0dec2b0       18     4         build/flex/obj/app/src/manage_asset_info.o:(.text.forget_known_assets)
c0dec2b0 c0dec2b0        0     1                 $t.0
c0dec2b1 c0dec2b1       18     1                 forget_known_assets
c0dec2c4 c0dec2c4        0     1                 $d.1
c0dec2c8 c0dec2c8       40     4         build/flex/obj/app/src/manage_asset_info.o:(.text.get_asset_index_by_addr)
c0dec2c8 c0dec2c8        0     1                 $t.2
c0dec2c9 c0dec2c9       40     1                 get_asset_index_by_addr
c0dec304 c0dec304        0     1                 $d.3
c0dec308 c0dec308       24     4         build/flex/obj/app/src/manage_asset_info.o:(.text.get_asset_info_by_addr)
c0dec308 c0dec308        0     1                 $t.4
c0dec309 c0dec309       24     1                 get_asset_info_by_addr
c0dec328 c0dec328        0     1                 $d.5
c0dec32c c0dec32c       1c     4         build/flex/obj/app/src/manage_asset_info.o:(.text.get_current_asset_info)
c0dec32c c0dec32c        0     1                 $t.6
c0dec32d c0dec32d       1c     1                 get_current_asset_info
c0dec344 c0dec344        0     1                 $d.7
c0dec348 c0dec348       2c     4         build/flex/obj/app/src/manage_asset_info.o:(.text.validate_current_asset_info)
c0dec348 c0dec348        0     1                 $t.8
c0dec349 c0dec349       2c     1                 validate_current_asset_info
c0dec370 c0dec370        0     1                 $d.9
c0dec374 c0dec374       24     4         build/flex/obj/app/src/mem.o:(.text.app_mem_init)
c0dec374 c0dec374        0     1                 $t.0
c0dec375 c0dec375       24     1                 app_mem_init
c0dec390 c0dec390        0     1                 $d.1
c0dec398 c0dec398       10     4         build/flex/obj/app/src/mem.o:(.text.app_mem_alloc_impl)
c0dec398 c0dec398        0     1                 $t.2
c0dec399 c0dec399       10     1                 app_mem_alloc_impl
c0dec3a4 c0dec3a4        0     1                 $d.3
c0dec3a8 c0dec3a8       14     4         build/flex/obj/app/src/mem.o:(.text.app_mem_free_impl)
c0dec3a8 c0dec3a8        0     1                 $t.4
c0dec3a9 c0dec3a9       14     1                 app_mem_free_impl
c0dec3b8 c0dec3b8        0     1                 $d.5
c0dec3bc c0dec3bc       40     4         build/flex/obj/app/src/mem_utils.o:(.text.mem_alloc_and_format_uint_impl)
c0dec3bc c0dec3bc        0     1                 $t.0
c0dec3bd c0dec3bd       40     1                 mem_alloc_and_format_uint_impl
c0dec3f8 c0dec3f8        0     1                 $d.1
c0dec3fc c0dec3fc       2c     2         build/flex/obj/app/src/mem_utils.o:(.text.app_mem_strdup_impl)
c0dec3fc c0dec3fc        0     1                 $t.2
c0dec3fd c0dec3fd       2c     1                 app_mem_strdup_impl
c0dec428 c0dec428       40     2         build/flex/obj/app/src/mem_utils.o:(.text.mem_buffer_allocate_impl)
c0dec428 c0dec428        0     1                 $t.3
c0dec429 c0dec429       40     1                 mem_buffer_allocate_impl
c0dec468 c0dec468       12     2         build/flex/obj/app/src/mem_utils.o:(.text.mem_buffer_cleanup_impl)
c0dec468 c0dec468        0     1                 $t.4
c0dec469 c0dec469       12     1                 mem_buffer_cleanup_impl
c0dec47c c0dec47c       78     4         build/flex/obj/app/src/nbgl/network_icons.o:(.text.get_network_icon_from_chain_id)
c0dec47c c0dec47c        0     1                 $t.0
c0dec47d c0dec47d       78     1                 get_network_icon_from_chain_id
c0dec4ec c0dec4ec        0     1                 $d.1
c0dec4f4 c0dec4f4       74     4         build/flex/obj/app/src/nbgl/ui_approve_tx.o:(.text.get_tx_icon)
c0dec4f4 c0dec4f4        0     1                 $t.0
c0dec4f5 c0dec4f5       74     1                 get_tx_icon
c0dec558 c0dec558        0     1                 $d.1
c0dec568 c0dec568      624     4         build/flex/obj/app/src/nbgl/ui_approve_tx.o:(.text.ux_approve_tx)
c0dec568 c0dec568        0     1                 $t.2
c0dec569 c0dec569      624     1                 ux_approve_tx
c0dec924 c0dec924        0     1                 $d.3
c0dec92c c0dec92c        0     1                 $t.4
c0decb0c c0decb0c        0     1                 $d.5
c0decb8c c0decb8c       28     4         build/flex/obj/app/src/nbgl/ui_approve_tx.o:(.text.reviewChoice)
c0decb8c c0decb8c        0     1                 $t.6
c0decb8d c0decb8d       28     1                 reviewChoice
c0decbb0 c0decbb0        0     1                 $d.7
c0decbb4 c0decbb4       38     4         build/flex/obj/app/src/nbgl/ui_approve_tx.o:(.text._cleanup)
c0decbb4 c0decbb4        0     1                 $t.8
c0decbb5 c0decbb5       38     1                 _cleanup
c0decbe8 c0decbe8        0     1                 $d.9
c0decbec c0decbec        e     2         build/flex/obj/app/src/nbgl/ui_approve_tx.o:(.text.OUTLINED_FUNCTION_0)
c0decbec c0decbec        0     1                 $t.10
c0decbed c0decbed        e     1                 OUTLINED_FUNCTION_0
c0decbfa c0decbfa        c     2         build/flex/obj/app/src/nbgl/ui_approve_tx.o:(.text.OUTLINED_FUNCTION_1)
c0decbfa c0decbfa        0     1                 $t.11
c0decbfb c0decbfb        c     1                 OUTLINED_FUNCTION_1
c0decc06 c0decc06        e     2         build/flex/obj/app/src/nbgl/ui_approve_tx.o:(.text.OUTLINED_FUNCTION_2)
c0decc06 c0decc06        0     1                 $t.12
c0decc07 c0decc07        e     1                 OUTLINED_FUNCTION_2
c0decc14 c0decc14        a     2         build/flex/obj/app/src/nbgl/ui_approve_tx.o:(.text.OUTLINED_FUNCTION_3)
c0decc14 c0decc14        0     1                 $t.13
c0decc15 c0decc15        a     1                 OUTLINED_FUNCTION_3
c0decc20 c0decc20       3c     4         build/flex/obj/app/src/nbgl/ui_blind_signing.o:(.text.ui_error_blind_signing)
c0decc20 c0decc20        0     1                 $t.0
c0decc21 c0decc21       3c     1                 ui_error_blind_signing
c0decc44 c0decc44        0     1                 $d.1
c0decc5c c0decc5c        a     2         build/flex/obj/app/src/nbgl/ui_blind_signing.o:(.text.ui_error_blind_signing_choice)
c0decc5c c0decc5c        0     1                 $t.2
c0decc5d c0decc5d        a     1                 ui_error_blind_signing_choice
c0decc66 c0decc66        6     2         build/flex/obj/app/src/nbgl/ui_confirm_parameter_selector.o:(.text.ui_confirm_parameter)
c0decc66 c0decc66        0     1                 $t.0
c0decc67 c0decc67        6     1                 ui_confirm_parameter
c0decc6c c0decc6c       dc     4         build/flex/obj/app/src/nbgl/ui_confirm_parameter_selector.o:(.text.buildScreen)
c0decc6c c0decc6c        0     1                 $t.1
c0decc6d c0decc6d       dc     1                 buildScreen
c0decd14 c0decd14        0     1                 $d.2
c0decd48 c0decd48        6     2         build/flex/obj/app/src/nbgl/ui_confirm_parameter_selector.o:(.text.ui_confirm_selector)
c0decd48 c0decd48        0     1                 $t.3
c0decd49 c0decd49        6     1                 ui_confirm_selector
c0decd4e c0decd4e        a     2         build/flex/obj/app/src/nbgl/ui_confirm_parameter_selector.o:(.text.reviewChoice)
c0decd4e c0decd4e        0     1                 $t.4
c0decd4f c0decd4f        a     1                 reviewChoice
c0decd58 c0decd58        c     4         build/flex/obj/app/src/nbgl/ui_display_privacy.o:(.text.ui_display_privacy_public_key)
c0decd58 c0decd58        0     1                 $t.0
c0decd59 c0decd59        c     1                 ui_display_privacy_public_key
c0decd60 c0decd60        0     1                 $d.1
c0decd64 c0decd64       70     4         build/flex/obj/app/src/nbgl/ui_display_privacy.o:(.text.buildFirstPage)
c0decd64 c0decd64        0     1                 $t.2
c0decd65 c0decd65       70     1                 buildFirstPage
c0decdbc c0decdbc        0     1                 $d.3
c0decdd4 c0decdd4        c     4         build/flex/obj/app/src/nbgl/ui_display_privacy.o:(.text.ui_display_privacy_shared_secret)
c0decdd4 c0decdd4        0     1                 $t.4
c0decdd5 c0decdd5        c     1                 ui_display_privacy_shared_secret
c0decddc c0decddc        0     1                 $d.5
c0decde0 c0decde0       16     2         build/flex/obj/app/src/nbgl/ui_display_privacy.o:(.text.reviewChoice)
c0decde0 c0decde0        0     1                 $t.6
c0decde1 c0decde1       16     1                 reviewChoice
c0decdf8 c0decdf8       7c     4         build/flex/obj/app/src/nbgl/ui_gcs.o:(.text.ui_gcs_cleanup)
c0decdf8 c0decdf8        0     1                 $t.0
c0decdf9 c0decdf9       7c     1                 ui_gcs_cleanup
c0dece6c c0dece6c        0     1                 $d.1
c0dece74 c0dece74      794     4         build/flex/obj/app/src/nbgl/ui_gcs.o:(.text.ui_gcs)
c0dece74 c0dece74        0     1                 $t.2
c0dece75 c0dece75      794     1                 ui_gcs
c0ded1f8 c0ded1f8        0     1                 $d.3
c0ded22c c0ded22c        0     1                 $t.4
c0ded5b8 c0ded5b8        0     1                 $d.5
c0ded608 c0ded608       24     4         build/flex/obj/app/src/nbgl/ui_gcs.o:(.text.review_choice)
c0ded608 c0ded608        0     1                 $t.6
c0ded609 c0ded609       24     1                 review_choice
c0ded628 c0ded628        0     1                 $d.7
c0ded62c c0ded62c       94     4         build/flex/obj/app/src/nbgl/ui_gcs.o:(.text.free_pair_extension)
c0ded62c c0ded62c        0     1                 $t.8
c0ded62d c0ded62d       94     1                 free_pair_extension
c0ded6bc c0ded6bc        0     1                 $d.9
c0ded6c0 c0ded6c0       96     2         build/flex/obj/app/src/nbgl/ui_gcs.o:(.text.get_infolist_extension)
c0ded6c0 c0ded6c0        0     1                 $t.10
c0ded6c1 c0ded6c1       96     1                 get_infolist_extension
c0ded756 c0ded756        c     2         build/flex/obj/app/src/nbgl/ui_gcs.o:(.text.OUTLINED_FUNCTION_0)
c0ded756 c0ded756        0     1                 $t.11
c0ded757 c0ded757        c     1                 OUTLINED_FUNCTION_0
c0ded762 c0ded762        a     2         build/flex/obj/app/src/nbgl/ui_gcs.o:(.text.OUTLINED_FUNCTION_1)
c0ded762 c0ded762        0     1                 $t.12
c0ded763 c0ded763        a     1                 OUTLINED_FUNCTION_1
c0ded76c c0ded76c        8     2         build/flex/obj/app/src/nbgl/ui_gcs.o:(.text.OUTLINED_FUNCTION_2)
c0ded76c c0ded76c        0     1                 $t.13
c0ded76d c0ded76d        8     1                 OUTLINED_FUNCTION_2
c0ded774 c0ded774        a     2         build/flex/obj/app/src/nbgl/ui_gcs.o:(.text.OUTLINED_FUNCTION_3)
c0ded774 c0ded774        0     1                 $t.14
c0ded775 c0ded775        a     1                 OUTLINED_FUNCTION_3
c0ded77e c0ded77e        c     2         build/flex/obj/app/src/nbgl/ui_gcs.o:(.text.OUTLINED_FUNCTION_4)
c0ded77e c0ded77e        0     1                 $t.15
c0ded77f c0ded77f        c     1                 OUTLINED_FUNCTION_4
c0ded78a c0ded78a        8     2         build/flex/obj/app/src/nbgl/ui_gcs.o:(.text.OUTLINED_FUNCTION_5)
c0ded78a c0ded78a        0     1                 $t.16
c0ded78b c0ded78b        8     1                 OUTLINED_FUNCTION_5
c0ded792 c0ded792        8     2         build/flex/obj/app/src/nbgl/ui_gcs.o:(.text.OUTLINED_FUNCTION_6)
c0ded792 c0ded792        0     1                 $t.17
c0ded793 c0ded793        8     1                 OUTLINED_FUNCTION_6
c0ded79a c0ded79a        a     2         build/flex/obj/app/src/nbgl/ui_gcs.o:(.text.OUTLINED_FUNCTION_7)
c0ded79a c0ded79a        0     1                 $t.18
c0ded79b c0ded79b        a     1                 OUTLINED_FUNCTION_7
c0ded7a4 c0ded7a4        a     2         build/flex/obj/app/src/nbgl/ui_gcs.o:(.text.OUTLINED_FUNCTION_8)
c0ded7a4 c0ded7a4        0     1                 $t.19
c0ded7a5 c0ded7a5        a     1                 OUTLINED_FUNCTION_8
c0ded7ae c0ded7ae        a     2         build/flex/obj/app/src/nbgl/ui_gcs.o:(.text.OUTLINED_FUNCTION_9)
c0ded7ae c0ded7ae        0     1                 $t.20
c0ded7af c0ded7af        a     1                 OUTLINED_FUNCTION_9
c0ded7b8 c0ded7b8       80     4         build/flex/obj/app/src/nbgl/ui_get_eth2_public_key.o:(.text.ui_display_public_eth2)
c0ded7b8 c0ded7b8        0     1                 $t.0
c0ded7b9 c0ded7b9       80     1                 ui_display_public_eth2
c0ded824 c0ded824        0     1                 $d.1
c0ded838 c0ded838       28     4         build/flex/obj/app/src/nbgl/ui_get_eth2_public_key.o:(.text.reviewChoice)
c0ded838 c0ded838        0     1                 $t.2
c0ded839 c0ded839       28     1                 reviewChoice
c0ded85c c0ded85c        0     1                 $d.3
c0ded860 c0ded860       dc     4         build/flex/obj/app/src/nbgl/ui_get_public_key.o:(.text.ui_display_public_key)
c0ded860 c0ded860        0     1                 $t.0
c0ded861 c0ded861       dc     1                 ui_display_public_key
c0ded920 c0ded920        0     1                 $d.1
c0ded93c c0ded93c       28     4         build/flex/obj/app/src/nbgl/ui_get_public_key.o:(.text.review_choice)
c0ded93c c0ded93c        0     1                 $t.2
c0ded93d c0ded93d       28     1                 review_choice
c0ded960 c0ded960        0     1                 $d.3
c0ded964 c0ded964       1c     4         build/flex/obj/app/src/nbgl/ui_home.o:(.text.get_app_icon)
c0ded964 c0ded964        0     1                 $t.0
c0ded965 c0ded965       1c     1                 get_app_icon
c0ded978 c0ded978        0     1                 $d.1
c0ded980 c0ded980        6     2         build/flex/obj/app/src/nbgl/ui_home.o:(.text.ui_idle)
c0ded980 c0ded980        0     1                 $t.2
c0ded981 c0ded981        6     1                 ui_idle
c0ded988 c0ded988      220     4         build/flex/obj/app/src/nbgl/ui_home.o:(.text.ui_start_page)
c0ded988 c0ded988        0     1                 $t.3
c0ded989 c0ded989      220     1                 ui_start_page
c0dedb44 c0dedb44        0     1                 $d.4
c0dedba8 c0dedba8        6     2         build/flex/obj/app/src/nbgl/ui_home.o:(.text.ui_settings)
c0dedba8 c0dedba8        0     1                 $t.5
c0dedba9 c0dedba9        6     1                 ui_settings
c0dedbb0 c0dedbb0      10c     4         build/flex/obj/app/src/nbgl/ui_home.o:(.text.setting_toggle_callback)
c0dedbb0 c0dedbb0        0     1                 $t.6
c0dedbb1 c0dedbb1      10c     1                 setting_toggle_callback
c0dedc9c c0dedc9c        0     1                 $d.7
c0dedcbc c0dedcbc        a     2         build/flex/obj/app/src/nbgl/ui_home.o:(.text.OUTLINED_FUNCTION_0)
c0dedcbc c0dedcbc        0     1                 $t.8
c0dedcbd c0dedcbd        a     1                 OUTLINED_FUNCTION_0
c0dedcc6 c0dedcc6        a     2         build/flex/obj/app/src/nbgl/ui_home.o:(.text.OUTLINED_FUNCTION_1)
c0dedcc6 c0dedcc6        0     1                 $t.9
c0dedcc7 c0dedcc7        a     1                 OUTLINED_FUNCTION_1
c0dedcd0 c0dedcd0       14     4         build/flex/obj/app/src/nbgl/ui_message_signing.o:(.text.ui_typed_message_review_choice_v0)
c0dedcd0 c0dedcd0        0     1                 $t.0
c0dedcd1 c0dedcd1       14     1                 ui_typed_message_review_choice_v0
c0dedcdc c0dedcdc        0     1                 $d.1
c0dedce4 c0dedce4       2c     4         build/flex/obj/app/src/nbgl/ui_message_signing.o:(.text.ui_typed_message_review_choice_common)
c0dedce4 c0dedce4        0     1                 $t.2
c0dedce5 c0dedce5       2c     1                 ui_typed_message_review_choice_common
c0dedd0c c0dedd0c        0     1                 $d.3
c0dedd10 c0dedd10       14     4         build/flex/obj/app/src/nbgl/ui_message_signing.o:(.text.ui_typed_message_review_choice)
c0dedd10 c0dedd10        0     1                 $t.4
c0dedd11 c0dedd11       14     1                 ui_typed_message_review_choice
c0dedd1c c0dedd1c        0     1                 $d.5
c0dedd24 c0dedd24       3c     4         build/flex/obj/app/src/nbgl/ui_no_7702.o:(.text.ui_error_no_7702)
c0dedd24 c0dedd24        0     1                 $t.0
c0dedd25 c0dedd25       3c     1                 ui_error_no_7702
c0dedd48 c0dedd48        0     1                 $d.1
c0dedd60 c0dedd60        a     2         build/flex/obj/app/src/nbgl/ui_no_7702.o:(.text.ui_error_no_7702_choice)
c0dedd60 c0dedd60        0     1                 $t.2
c0dedd61 c0dedd61        a     1                 ui_error_no_7702_choice
c0dedd6c c0dedd6c       3c     4         build/flex/obj/app/src/nbgl/ui_no_7702_whitelist.o:(.text.ui_error_no_7702_whitelist)
c0dedd6c c0dedd6c        0     1                 $t.0
c0dedd6d c0dedd6d       3c     1                 ui_error_no_7702_whitelist
c0dedd90 c0dedd90        0     1                 $d.1
c0dedda8 c0dedda8        4     2         build/flex/obj/app/src/nbgl/ui_no_7702_whitelist.o:(.text.ui_error_no_7702_whitelist_choice)
c0dedda8 c0dedda8        0     1                 $t.2
c0dedda9 c0dedda9        4     1                 ui_error_no_7702_whitelist_choice
c0deddac c0deddac      2ac     4         build/flex/obj/app/src/nbgl/ui_safe_account.o:(.text.ui_display_safe_account)
c0deddac c0deddac        0     1                 $t.0
c0deddad c0deddad      2ac     1                 ui_display_safe_account
c0dee014 c0dee014        0     1                 $d.1
c0dee058 c0dee058       78     4         build/flex/obj/app/src/nbgl/ui_safe_account.o:(.text._cleanup)
c0dee058 c0dee058        0     1                 $t.2
c0dee059 c0dee059       78     1                 _cleanup
c0dee0c8 c0dee0c8        0     1                 $d.3
c0dee0d0 c0dee0d0       48     4         build/flex/obj/app/src/nbgl/ui_safe_account.o:(.text.review_cb)
c0dee0d0 c0dee0d0        0     1                 $t.4
c0dee0d1 c0dee0d1       48     1                 review_cb
c0dee108 c0dee108        0     1                 $d.5
c0dee118 c0dee118       12     2         build/flex/obj/app/src/nbgl/ui_safe_account.o:(.text.OUTLINED_FUNCTION_0)
c0dee118 c0dee118        0     1                 $t.6
c0dee119 c0dee119       12     1                 OUTLINED_FUNCTION_0
c0dee12a c0dee12a        6     2         build/flex/obj/app/src/nbgl/ui_safe_account.o:(.text.OUTLINED_FUNCTION_1)
c0dee12a c0dee12a        0     1                 $t.7
c0dee12b c0dee12b        6     1                 OUTLINED_FUNCTION_1
c0dee130 c0dee130        6     2         build/flex/obj/app/src/nbgl/ui_safe_account.o:(.text.OUTLINED_FUNCTION_2)
c0dee130 c0dee130        0     1                 $t.8
c0dee131 c0dee131        6     1                 OUTLINED_FUNCTION_2
c0dee138 c0dee138       20     4         build/flex/obj/app/src/nbgl/ui_sign_712.o:(.text.ui_sign_712)
c0dee138 c0dee138        0     1                 $t.0
c0dee139 c0dee139       20     1                 ui_sign_712
c0dee154 c0dee154        0     1                 $d.1
c0dee158 c0dee158       b0     4         build/flex/obj/app/src/nbgl/ui_sign_712.o:(.text.ui_712_start_review)
c0dee158 c0dee158        0     1                 $t.2
c0dee159 c0dee159       b0     1                 ui_712_start_review
c0dee1e8 c0dee1e8        0     1                 $d.3
c0dee208 c0dee208       38     4         build/flex/obj/app/src/nbgl/ui_sign_712.o:(.text.ui_sign_712_v0)
c0dee208 c0dee208        0     1                 $t.4
c0dee209 c0dee209       38     1                 ui_sign_712_v0
c0dee23c c0dee23c        0     1                 $d.5
c0dee240 c0dee240       88     4         build/flex/obj/app/src/nbgl/ui_sign_authorization_7702.o:(.text.ui_sign_7702_auth)
c0dee240 c0dee240        0     1                 $t.0
c0dee241 c0dee241       88     1                 ui_sign_7702_auth
c0dee2a0 c0dee2a0        0     1                 $d.1
c0dee2c8 c0dee2c8       28     4         build/flex/obj/app/src/nbgl/ui_sign_authorization_7702.o:(.text.review7702Choice)
c0dee2c8 c0dee2c8        0     1                 $t.2
c0dee2c9 c0dee2c9       28     1                 review7702Choice
c0dee2ec c0dee2ec        0     1                 $d.3
c0dee2f0 c0dee2f0       b0     4         build/flex/obj/app/src/nbgl/ui_sign_message.o:(.text.ui_191_start)
c0dee2f0 c0dee2f0        0     1                 $t.0
c0dee2f1 c0dee2f1       b0     1                 ui_191_start
c0dee37c c0dee37c        0     1                 $d.1
c0dee3a0 c0dee3a0       28     4         build/flex/obj/app/src/nbgl/ui_sign_message.o:(.text.ui_191_finish_cb)
c0dee3a0 c0dee3a0        0     1                 $t.2
c0dee3a1 c0dee3a1       28     1                 ui_191_finish_cb
c0dee3c4 c0dee3c4        0     1                 $d.3
c0dee3c8 c0dee3c8       78     4         build/flex/obj/app/src/nbgl/ui_sign_revocation_7702.o:(.text.ui_sign_7702_revocation)
c0dee3c8 c0dee3c8        0     1                 $t.0
c0dee3c9 c0dee3c9       78     1                 ui_sign_7702_revocation
c0dee41c c0dee41c        0     1                 $d.1
c0dee440 c0dee440       28     4         build/flex/obj/app/src/nbgl/ui_sign_revocation_7702.o:(.text.review7702Choice)
c0dee440 c0dee440        0     1                 $t.2
c0dee441 c0dee441       28     1                 review7702Choice
c0dee464 c0dee464        0     1                 $d.3
c0dee468 c0dee468       b0     4         build/flex/obj/app/src/nbgl/ui_tx_simulation.o:(.text.ui_tx_simulation_opt_in)
c0dee468 c0dee468        0     1                 $t.0
c0dee469 c0dee469       b0     1                 ui_tx_simulation_opt_in
c0dee4fc c0dee4fc        0     1                 $d.1
c0dee518 c0dee518      13c     4         build/flex/obj/app/src/nbgl/ui_tx_simulation.o:(.text.opt_in_action_cb)
c0dee518 c0dee518        0     1                 $t.2
c0dee519 c0dee519      13c     1                 opt_in_action_cb
c0dee624 c0dee624        0     1                 $d.3
c0dee654 c0dee654       34     4         build/flex/obj/app/src/nbgl/ui_tx_simulation.o:(.text.ui_tx_simulation_finish_str)
c0dee654 c0dee654        0     1                 $t.4
c0dee655 c0dee655       34     1                 ui_tx_simulation_finish_str
c0dee678 c0dee678        0     1                 $d.5
c0dee688 c0dee688       14     4         build/flex/obj/app/src/nbgl/ui_tx_simulation.o:(.text.finalise_opt_in)
c0dee688 c0dee688        0     1                 $t.6
c0dee689 c0dee689       14     1                 finalise_opt_in
c0dee698 c0dee698        0     1                 $d.7
c0dee69c c0dee69c       10     4         build/flex/obj/app/src/nbgl/ui_tx_simulation.o:(.text.opt_in_explain_cb)
c0dee69c c0dee69c        0     1                 $t.8
c0dee69d c0dee69d       10     1                 opt_in_explain_cb
c0dee6a8 c0dee6a8        0     1                 $d.9
c0dee6ac c0dee6ac       28     4         build/flex/obj/app/src/nbgl/ui_utils.o:(.text.ui_pairs_cleanup)
c0dee6ac c0dee6ac        0     1                 $t.0
c0dee6ad c0dee6ad       28     1                 ui_pairs_cleanup
c0dee6cc c0dee6cc        0     1                 $d.1
c0dee6d4 c0dee6d4       3c     4         build/flex/obj/app/src/nbgl/ui_utils.o:(.text.ui_buffers_cleanup)
c0dee6d4 c0dee6d4        0     1                 $t.2
c0dee6d5 c0dee6d5       3c     1                 ui_buffers_cleanup
c0dee700 c0dee700        0     1                 $d.3
c0dee710 c0dee710        e     2         build/flex/obj/app/src/nbgl/ui_utils.o:(.text.ui_all_cleanup)
c0dee710 c0dee710        0     1                 $t.4
c0dee711 c0dee711        e     1                 ui_all_cleanup
c0dee720 c0dee720       58     4         build/flex/obj/app/src/nbgl/ui_utils.o:(.text.ui_pairs_init)
c0dee720 c0dee720        0     1                 $t.5
c0dee721 c0dee721       58     1                 ui_pairs_init
c0dee770 c0dee770        0     1                 $d.6
c0dee778 c0dee778       18     2         build/flex/obj/app/src/nbgl/ui_utils.o:(.text._cleanup)
c0dee778 c0dee778        0     1                 $t.7
c0dee779 c0dee779       18     1                 _cleanup
c0dee790 c0dee790       48     4         build/flex/obj/app/src/nbgl/ui_utils.o:(.text.ui_buffers_init)
c0dee790 c0dee790        0     1                 $t.8
c0dee791 c0dee791       48     1                 ui_buffers_init
c0dee7cc c0dee7cc        0     1                 $d.9
c0dee7d8 c0dee7d8        c     2         build/flex/obj/app/src/nbgl/ui_utils.o:(.text.OUTLINED_FUNCTION_0)
c0dee7d8 c0dee7d8        0     1                 $t.10
c0dee7d9 c0dee7d9        c     1                 OUTLINED_FUNCTION_0
c0dee7e4 c0dee7e4       16     2         build/flex/obj/app/src/network.o:(.text.get_network_name_from_chain_id)
c0dee7e4 c0dee7e4        0     1                 $t.0
c0dee7e5 c0dee7e5       16     1                 get_network_name_from_chain_id
c0dee7fc c0dee7fc       58     4         build/flex/obj/app/src/network.o:(.text.get_network_from_chain_id)
c0dee7fc c0dee7fc        0     1                 $t.1
c0dee7fd c0dee7fd       58     1                 get_network_from_chain_id
c0dee84c c0dee84c        0     1                 $d.2
c0dee854 c0dee854       3c     2         build/flex/obj/app/src/network.o:(.text.get_network_as_string_from_chain_id)
c0dee854 c0dee854        0     1                 $t.3
c0dee855 c0dee855       3c     1                 get_network_as_string_from_chain_id
c0dee890 c0dee890       1a     2         build/flex/obj/app/src/network.o:(.text.get_network_as_string)
c0dee890 c0dee890        0     1                 $t.4
c0dee891 c0dee891       1a     1                 get_network_as_string
c0dee8ac c0dee8ac       4c     4         build/flex/obj/app/src/network.o:(.text.get_tx_chain_id)
c0dee8ac c0dee8ac        0     1                 $t.5
c0dee8ad c0dee8ad       4c     1                 get_tx_chain_id
c0dee8f0 c0dee8f0        0     1                 $d.6
c0dee8f8 c0dee8f8       10     2         build/flex/obj/app/src/network.o:(.text.chain_is_ethereum_compatible)
c0dee8f8 c0dee8f8        0     1                 $t.7
c0dee8f9 c0dee8f9       10     1                 chain_is_ethereum_compatible
c0dee908 c0dee908       38     4         build/flex/obj/app/src/network.o:(.text.get_displayable_ticker)
c0dee908 c0dee908        0     1                 $t.8
c0dee909 c0dee909       38     1                 get_displayable_ticker
c0dee93c c0dee93c        0     1                 $d.9
c0dee940 c0dee940       38     4         build/flex/obj/app/src/network.o:(.text.app_compatible_with_chain_id)
c0dee940 c0dee940        0     1                 $t.10
c0dee941 c0dee941       38     1                 app_compatible_with_chain_id
c0dee974 c0dee974        0     1                 $d.11
c0dee978 c0dee978       40     4         build/flex/obj/app/src/plugins.o:(.text.plugin_ui_get_id)
c0dee978 c0dee978        0     1                 $t.0
c0dee979 c0dee979       40     1                 plugin_ui_get_id
c0dee9b4 c0dee9b4        0     1                 $d.1
c0dee9b8 c0dee9b8       50     4         build/flex/obj/app/src/plugins.o:(.text.plugin_ui_get_item_internal)
c0dee9b8 c0dee9b8        0     1                 $t.2
c0dee9b9 c0dee9b9       50     1                 plugin_ui_get_item_internal
c0deea04 c0deea04        0     1                 $d.3
c0deea08 c0deea08      18c     4         build/flex/obj/app/src/plugins/eip7002/eip7002_plugin.o:(.text.eip7002_plugin_call)
c0deea08 c0deea08        0     1                 $t.0
c0deea09 c0deea09      18c     1                 eip7002_plugin_call
c0deeb7c c0deeb7c        0     1                 $d.1
c0deeb94 c0deeb94      16c     4         build/flex/obj/app/src/plugins/eip7251/eip7251_plugin.o:(.text.eip7251_plugin_call)
c0deeb94 c0deeb94        0     1                 $t.0
c0deeb95 c0deeb95      16c     1                 eip7251_plugin_call
c0deece8 c0deece8        0     1                 $d.1
c0deed00 c0deed00       14     2         build/flex/obj/app/src/plugins/eip7251/eip7251_plugin.o:(.text.target_equals_source)
c0deed00 c0deed00        0     1                 $t.2
c0deed01 c0deed01       14     1                 target_equals_source
c0deed14 c0deed14       94     4         build/flex/obj/app/src/plugins/erc1155/erc1155_plugin.o:(.text.handle_init_contract_1155)
c0deed14 c0deed14        0     1                 $t.0
c0deed15 c0deed15       94     1                 handle_init_contract_1155
c0deeda0 c0deeda0        0     1                 $d.1
c0deeda8 c0deeda8       4e     2         build/flex/obj/app/src/plugins/erc1155/erc1155_plugin.o:(.text.handle_finalize_1155)
c0deeda8 c0deeda8        0     1                 $t.2
c0deeda9 c0deeda9       4e     1                 handle_finalize_1155
c0deedf8 c0deedf8       74     4         build/flex/obj/app/src/plugins/erc1155/erc1155_plugin.o:(.text.handle_query_contract_id_1155)
c0deedf8 c0deedf8        0     1                 $t.4
c0deedf9 c0deedf9       74     1                 handle_query_contract_id_1155
c0deee58 c0deee58        0     1                 $d.5
c0deee6c c0deee6c       4e     2         build/flex/obj/app/src/plugins/erc1155/erc1155_plugin.o:(.text.erc1155_plugin_call)
c0deee6c c0deee6c        0     1                 $t.6
c0deee6d c0deee6d       4e     1                 erc1155_plugin_call
c0deeeba c0deeeba      188     2         build/flex/obj/app/src/plugins/erc1155/erc1155_provide_parameters.o:(.text.handle_provide_parameter_1155)
c0deeeba c0deeeba        0     1                 $t.0
c0deeebb c0deeebb      188     1                 handle_provide_parameter_1155
c0def042 c0def042       16     2         build/flex/obj/app/src/plugins/erc1155/erc1155_provide_parameters.o:(.text.U4BE)
c0def042 c0def042        0     1                 $t.1
c0def043 c0def043       16     1                 U4BE
c0def058 c0def058       14     2         build/flex/obj/app/src/plugins/erc1155/erc1155_provide_parameters.o:(.text.OUTLINED_FUNCTION_0)
c0def058 c0def058        0     1                 $t.2
c0def059 c0def059       14     1                 OUTLINED_FUNCTION_0
c0def06c c0def06c        a     2         build/flex/obj/app/src/plugins/erc1155/erc1155_provide_parameters.o:(.text.OUTLINED_FUNCTION_1)
c0def06c c0def06c        0     1                 $t.3
c0def06d c0def06d        a     1                 OUTLINED_FUNCTION_1
c0def078 c0def078      1a0     4         build/flex/obj/app/src/plugins/erc1155/erc1155_ui.o:(.text.handle_query_contract_ui_1155)
c0def078 c0def078        0     1                 $t.0
c0def079 c0def079      1a0     1                 handle_query_contract_ui_1155
c0def1e8 c0def1e8        0     1                 $d.1
c0def218 c0def218      34c     4         build/flex/obj/app/src/plugins/erc20/erc20_plugin.o:(.text.erc20_plugin_call)
c0def218 c0def218        0     1                 $t.0
c0def219 c0def219      34c     1                 erc20_plugin_call
c0def530 c0def530        0     1                 $d.1
c0def564 c0def564       94     4         build/flex/obj/app/src/plugins/erc721/erc721_plugin.o:(.text.handle_init_contract_721)
c0def564 c0def564        0     1                 $t.0
c0def565 c0def565       94     1                 handle_init_contract_721
c0def5f0 c0def5f0        0     1                 $d.1
c0def5f8 c0def5f8       4e     2         build/flex/obj/app/src/plugins/erc721/erc721_plugin.o:(.text.handle_finalize_721)
c0def5f8 c0def5f8        0     1                 $t.2
c0def5f9 c0def5f9       4e     1                 handle_finalize_721
c0def648 c0def648       68     4         build/flex/obj/app/src/plugins/erc721/erc721_plugin.o:(.text.handle_query_contract_id_721)
c0def648 c0def648        0     1                 $t.4
c0def649 c0def649       68     1                 handle_query_contract_id_721
c0def6a0 c0def6a0        0     1                 $d.5
c0def6b0 c0def6b0       4e     2         build/flex/obj/app/src/plugins/erc721/erc721_plugin.o:(.text.erc721_plugin_call)
c0def6b0 c0def6b0        0     1                 $t.6
c0def6b1 c0def6b1       4e     1                 erc721_plugin_call
c0def6fe c0def6fe       8a     2         build/flex/obj/app/src/plugins/erc721/erc721_provide_parameters.o:(.text.handle_provide_parameter_721)
c0def6fe c0def6fe        0     1                 $t.0
c0def6ff c0def6ff       8a     1                 handle_provide_parameter_721
c0def788 c0def788       32     2         build/flex/obj/app/src/plugins/erc721/erc721_provide_parameters.o:(.text.handle_transfer)
c0def788 c0def788        0     1                 $t.1
c0def789 c0def789       32     1                 handle_transfer
c0def7ba c0def7ba        c     2         build/flex/obj/app/src/plugins/erc721/erc721_provide_parameters.o:(.text.OUTLINED_FUNCTION_0)
c0def7ba c0def7ba        0     1                 $t.2
c0def7bb c0def7bb        c     1                 OUTLINED_FUNCTION_0
c0def7c6 c0def7c6        a     2         build/flex/obj/app/src/plugins/erc721/erc721_provide_parameters.o:(.text.OUTLINED_FUNCTION_1)
c0def7c6 c0def7c6        0     1                 $t.3
c0def7c7 c0def7c7        a     1                 OUTLINED_FUNCTION_1
c0def7d0 c0def7d0      13c     4         build/flex/obj/app/src/plugins/erc721/erc721_ui.o:(.text.handle_query_contract_ui_721)
c0def7d0 c0def7d0        0     1                 $t.0
c0def7d1 c0def7d1      13c     1                 handle_query_contract_ui_721
c0def8e4 c0def8e4        0     1                 $d.1
c0def90c c0def90c      214     4         build/flex/obj/app/src/plugins/eth2/eth2_plugin.o:(.text.eth2_plugin_call)
c0def90c c0def90c        0     1                 $t.0
c0def90d c0def90d      214     1                 eth2_plugin_call
c0defb04 c0defb04        0     1                 $d.1
c0defb20 c0defb20       30     4         build/flex/obj/app/src/plugins/swap_with_calldata/swap_with_calldata_plugin.o:(.text.handle_init_contract_swap_with_calldata)
c0defb20 c0defb20        0     1                 $t.0
c0defb21 c0defb21       30     1                 handle_init_contract_swap_with_calldata
c0defb4c c0defb4c        0     1                 $d.1
c0defb50 c0defb50       28     4         build/flex/obj/app/src/plugins/swap_with_calldata/swap_with_calldata_plugin.o:(.text.handle_provide_parameter_swap_with_calldata)
c0defb50 c0defb50        0     1                 $t.2
c0defb51 c0defb51       28     1                 handle_provide_parameter_swap_with_calldata
c0defb74 c0defb74        0     1                 $d.3
c0defb78 c0defb78       64     4         build/flex/obj/app/src/plugins/swap_with_calldata/swap_with_calldata_plugin.o:(.text.handle_finalize_swap_with_calldata)
c0defb78 c0defb78        0     1                 $t.4
c0defb79 c0defb79       64     1                 handle_finalize_swap_with_calldata
c0defbd0 c0defbd0        0     1                 $d.5
c0defbdc c0defbdc       2a     2         build/flex/obj/app/src/plugins/swap_with_calldata/swap_with_calldata_plugin.o:(.text.swap_with_calldata_plugin_call)
c0defbdc c0defbdc        0     1                 $t.6
c0defbdd c0defbdd       2a     1                 swap_with_calldata_plugin_call
c0defc08 c0defc08       38     4         build/flex/obj/app/src/time_format.o:(.text.time_format_to_yyyymmdd)
c0defc08 c0defc08        0     1                 $t.0
c0defc09 c0defc09       38     1                 time_format_to_yyyymmdd
c0defc3c c0defc3c        0     1                 $d.1
c0defc40 c0defc40        e     2         build/flex/obj/app/src/time_format.o:(.text.get_time_struct)
c0defc40 c0defc40        0     1                 $t.2
c0defc41 c0defc41        e     1                 get_time_struct
c0defc50 c0defc50       70     4         build/flex/obj/app/src/time_format.o:(.text.time_format_to_utc)
c0defc50 c0defc50        0     1                 $t.3
c0defc51 c0defc51       70     1                 time_format_to_utc
c0defcb4 c0defcb4        0     1                 $d.4
c0defcc0 c0defcc0       d2     2         build/flex/obj/app/src/tlv.o:(.text.tlv_parse)
c0defcc0 c0defcc0        0     1                 $t.0
c0defcc1 c0defcc1       d2     1                 tlv_parse
c0defd92 c0defd92       54     2         build/flex/obj/app/src/tlv.o:(.text.parse_der_value)
c0defd92 c0defd92        0     1                 $t.1
c0defd93 c0defd93       54     1                 parse_der_value
c0defde8 c0defde8       a4     4         build/flex/obj/app/src/tlv_apdu.o:(.text.tlv_from_apdu)
c0defde8 c0defde8        0     1                 $t.0
c0defde9 c0defde9       a4     1                 tlv_from_apdu
c0defe88 c0defe88        0     1                 $d.1
c0defe8c c0defe8c       20     4         build/flex/obj/app/src/tlv_apdu.o:(.text.reset_state)
c0defe8c c0defe8c        0     1                 $t.2
c0defe8d c0defe8d       20     1                 reset_state
c0defea8 c0defea8        0     1                 $d.3
c0defeac c0defeac       20     2         build/flex/obj/app/src/uint128.o:(.text.readu128BE)
c0defeac c0defeac        0     1                 $t.0
c0defead c0defead       20     1                 readu128BE
c0defecc c0defecc       1a     2         build/flex/obj/app/src/uint128.o:(.text.zero128)
c0defecc c0defecc        0     1                 $t.1
c0defecd c0defecd       1a     1                 zero128
c0defee6 c0defee6       12     2         build/flex/obj/app/src/uint128.o:(.text.copy128)
c0defee6 c0defee6        0     1                 $t.2
c0defee7 c0defee7       12     1                 copy128
c0defef8 c0defef8        c     2         build/flex/obj/app/src/uint128.o:(.text.clear128)
c0defef8 c0defef8        0     1                 $t.3
c0defef9 c0defef9        c     1                 clear128
c0deff04 c0deff04       86     2         build/flex/obj/app/src/uint128.o:(.text.shiftl128)
c0deff04 c0deff04        0     1                 $t.4
c0deff05 c0deff05       86     1                 shiftl128
c0deff8a c0deff8a       84     2         build/flex/obj/app/src/uint128.o:(.text.shiftr128)
c0deff8a c0deff8a        0     1                 $t.5
c0deff8b c0deff8b       84     1                 shiftr128
c0df000e c0df000e       38     2         build/flex/obj/app/src/uint128.o:(.text.bits128)
c0df000e c0df000e        0     1                 $t.6
c0df000f c0df000f       38     1                 bits128
c0df0046 c0df0046       24     2         build/flex/obj/app/src/uint128.o:(.text.equal128)
c0df0046 c0df0046        0     1                 $t.7
c0df0047 c0df0047       24     1                 equal128
c0df006a c0df006a       2c     2         build/flex/obj/app/src/uint128.o:(.text.gt128)
c0df006a c0df006a        0     1                 $t.8
c0df006b c0df006b       2c     1                 gt128
c0df0096 c0df0096       2e     2         build/flex/obj/app/src/uint128.o:(.text.gte128)
c0df0096 c0df0096        0     1                 $t.9
c0df0097 c0df0097       2e     1                 gte128
c0df00c4 c0df00c4       44     2         build/flex/obj/app/src/uint128.o:(.text.add128)
c0df00c4 c0df00c4        0     1                 $t.10
c0df00c5 c0df00c5       44     1                 add128
c0df0108 c0df0108       50     2         build/flex/obj/app/src/uint128.o:(.text.sub128)
c0df0108 c0df0108        0     1                 $t.11
c0df0109 c0df0109       50     1                 sub128
c0df0158 c0df0158       26     2         build/flex/obj/app/src/uint128.o:(.text.or128)
c0df0158 c0df0158        0     1                 $t.12
c0df0159 c0df0159       26     1                 or128
c0df017e c0df017e      256     2         build/flex/obj/app/src/uint128.o:(.text.divmod128)
c0df017e c0df017e        0     1                 $t.14
c0df017f c0df017f      256     1                 divmod128
c0df03d4 c0df03d4       8c     4         build/flex/obj/app/src/uint128.o:(.text.tostring128)
c0df03d4 c0df03d4        0     1                 $t.15
c0df03d5 c0df03d5       8c     1                 tostring128
c0df045c c0df045c        0     1                 $d.16
c0df0460 c0df0460       e8     2         build/flex/obj/app/src/uint128.o:(.text.tostring128_signed)
c0df0460 c0df0460        0     1                 $t.17
c0df0461 c0df0461       e8     1                 tostring128_signed
c0df0548 c0df0548       36     2         build/flex/obj/app/src/uint128.o:(.text.convertUint64BEto128)
c0df0548 c0df0548        0     1                 $t.18
c0df0549 c0df0549       36     1                 convertUint64BEto128
c0df057e c0df057e       2e     2         build/flex/obj/app/src/uint128.o:(.text.convertUint128BE)
c0df057e c0df057e        0     1                 $t.19
c0df057f c0df057f       2e     1                 convertUint128BE
c0df05ac c0df05ac       14     2         build/flex/obj/app/src/uint128.o:(.text.OUTLINED_FUNCTION_0)
c0df05ac c0df05ac        0     1                 $t.20
c0df05ad c0df05ad       14     1                 OUTLINED_FUNCTION_0
c0df05c0 c0df05c0        e     2         build/flex/obj/app/src/uint128.o:(.text.OUTLINED_FUNCTION_1)
c0df05c0 c0df05c0        0     1                 $t.21
c0df05c1 c0df05c1        e     1                 OUTLINED_FUNCTION_1
c0df05ce c0df05ce        c     2         build/flex/obj/app/src/uint128.o:(.text.OUTLINED_FUNCTION_2)
c0df05ce c0df05ce        0     1                 $t.22
c0df05cf c0df05cf        c     1                 OUTLINED_FUNCTION_2
c0df05da c0df05da       10     2         build/flex/obj/app/src/uint128.o:(.text.OUTLINED_FUNCTION_3)
c0df05da c0df05da        0     1                 $t.23
c0df05db c0df05db       10     1                 OUTLINED_FUNCTION_3
c0df05ea c0df05ea        e     2         build/flex/obj/app/src/uint128.o:(.text.OUTLINED_FUNCTION_4)
c0df05ea c0df05ea        0     1                 $t.24
c0df05eb c0df05eb        e     1                 OUTLINED_FUNCTION_4
c0df05f8 c0df05f8       16     2         build/flex/obj/app/src/uint256.o:(.text.readu256BE)
c0df05f8 c0df05f8        0     1                 $t.0
c0df05f9 c0df05f9       16     1                 readu256BE
c0df060e c0df060e       1a     2         build/flex/obj/app/src/uint256.o:(.text.zero256)
c0df060e c0df060e        0     1                 $t.1
c0df060f c0df060f       1a     1                 zero256
c0df0628 c0df0628       16     2         build/flex/obj/app/src/uint256.o:(.text.copy256)
c0df0628 c0df0628        0     1                 $t.2
c0df0629 c0df0629       16     1                 copy256
c0df063e c0df063e       14     2         build/flex/obj/app/src/uint256.o:(.text.clear256)
c0df063e c0df063e        0     1                 $t.3
c0df063f c0df063f       14     1                 clear256
c0df0652 c0df0652       a4     2         build/flex/obj/app/src/uint256.o:(.text.shiftl256)
c0df0652 c0df0652        0     1                 $t.4
c0df0653 c0df0653       a4     1                 shiftl256
c0df06f6 c0df06f6       9e     2         build/flex/obj/app/src/uint256.o:(.text.shiftr256)
c0df06f6 c0df06f6        0     1                 $t.5
c0df06f7 c0df06f7       9e     1                 shiftr256
c0df0794 c0df0794       4a     2         build/flex/obj/app/src/uint256.o:(.text.bits256)
c0df0794 c0df0794        0     1                 $t.6
c0df0795 c0df0795       4a     1                 bits256
c0df07de c0df07de       1c     2         build/flex/obj/app/src/uint256.o:(.text.equal256)
c0df07de c0df07de        0     1                 $t.7
c0df07df c0df07df       1c     1                 equal256
c0df07fa c0df07fa       22     2         build/flex/obj/app/src/uint256.o:(.text.gt256)
c0df07fa c0df07fa        0     1                 $t.8
c0df07fb c0df07fb       22     1                 gt256
c0df081c c0df081c       1c     2         build/flex/obj/app/src/uint256.o:(.text.gte256)
c0df081c c0df081c        0     1                 $t.9
c0df081d c0df081d       1c     1                 gte256
c0df0838 c0df0838       44     2         build/flex/obj/app/src/uint256.o:(.text.add256)
c0df0838 c0df0838        0     1                 $t.10
c0df0839 c0df0839       44     1                 add256
c0df087c c0df087c       44     2         build/flex/obj/app/src/uint256.o:(.text.sub256)
c0df087c c0df087c        0     1                 $t.11
c0df087d c0df087d       44     1                 sub256
c0df08c0 c0df08c0       20     2         build/flex/obj/app/src/uint256.o:(.text.or256)
c0df08c0 c0df08c0        0     1                 $t.12
c0df08c1 c0df08c1       20     1                 or256
c0df08e0 c0df08e0       ac     2         build/flex/obj/app/src/uint256.o:(.text.mul256)
c0df08e0 c0df08e0        0     1                 $t.13
c0df08e1 c0df08e1       ac     1                 mul256
c0df098c c0df098c       d0     2         build/flex/obj/app/src/uint256.o:(.text.divmod256)
c0df098c c0df098c        0     1                 $t.14
c0df098d c0df098d       d0     1                 divmod256
c0df0a5c c0df0a5c       a4     4         build/flex/obj/app/src/uint256.o:(.text.tostring256)
c0df0a5c c0df0a5c        0     1                 $t.15
c0df0a5d c0df0a5d       a4     1                 tostring256
c0df0af8 c0df0af8        0     1                 $d.16
c0df0b00 c0df0b00       94     2         build/flex/obj/app/src/uint256.o:(.text.tostring256_signed)
c0df0b00 c0df0b00        0     1                 $t.17
c0df0b01 c0df0b01       94     1                 tostring256_signed
c0df0b94 c0df0b94       36     2         build/flex/obj/app/src/uint256.o:(.text.convertUint256BE)
c0df0b94 c0df0b94        0     1                 $t.18
c0df0b95 c0df0b95       36     1                 convertUint256BE
c0df0bca c0df0bca       10     2         build/flex/obj/app/src/uint256.o:(.text.OUTLINED_FUNCTION_0)
c0df0bca c0df0bca        0     1                 $t.19
c0df0bcb c0df0bcb       10     1                 OUTLINED_FUNCTION_0
c0df0bda c0df0bda        a     2         build/flex/obj/app/src/uint256.o:(.text.OUTLINED_FUNCTION_1)
c0df0bda c0df0bda        0     1                 $t.20
c0df0bdb c0df0bdb        a     1                 OUTLINED_FUNCTION_1
c0df0be4 c0df0be4        a     2         build/flex/obj/app/src/uint256.o:(.text.OUTLINED_FUNCTION_2)
c0df0be4 c0df0be4        0     1                 $t.21
c0df0be5 c0df0be5        a     1                 OUTLINED_FUNCTION_2
c0df0bee c0df0bee       1a     2         build/flex/obj/app/src/uint_common.o:(.text.reverseString)
c0df0bee c0df0bee        0     1                 $t.0
c0df0bef c0df0bef       1a     1                 reverseString
c0df0c08 c0df0c08       2c     2         build/flex/obj/app/src/utils.o:(.text.buf_shrink_expand)
c0df0c08 c0df0c08        0     1                 $t.0
c0df0c09 c0df0c09       2c     1                 buf_shrink_expand
c0df0c34 c0df0c34       34     2         build/flex/obj/app/src/utils.o:(.text.str_cpy_explicit_trunc)
c0df0c34 c0df0c34        0     1                 $t.1
c0df0c35 c0df0c35       34     1                 str_cpy_explicit_trunc
c0df0c68 c0df0c68       2c     4         build/flex/obj/app/src/utils.o:(.text.is_printable)
c0df0c68 c0df0c68        0     1                 $t.2
c0df0c69 c0df0c69       2c     1                 is_printable
c0df0c90 c0df0c90        0     1                 $d.3
c0df0c94 c0df0c94       d6     2         build/flex/obj/sdk/io/src/os_io_default_apdu.o:(.text.os_io_handle_default_apdu)
c0df0c94 c0df0c94        0     1                 $t.0
c0df0c95 c0df0c95       d6     1                 os_io_handle_default_apdu
c0df0d6a c0df0d6a        e     2         build/flex/obj/sdk/io/src/os_io_default_apdu.o:(.text.OUTLINED_FUNCTION_0)
c0df0d6a c0df0d6a        0     1                 $t.1
c0df0d6b c0df0d6b        e     1                 OUTLINED_FUNCTION_0
c0df0d78 c0df0d78       54     2         build/flex/obj/sdk/io/src/os_io_seph_cmd.o:(.text.os_io_seph_cmd_piezo_play_tune)
c0df0d78 c0df0d78        0     1                 $t.20
c0df0d79 c0df0d79       54     1                 os_io_seph_cmd_piezo_play_tune
c0df0dcc c0df0dcc        4     2         build/flex/obj/sdk/io/src/os_io_seph_cmd.o:(.text.io_seproxyhal_play_tune)
c0df0dcc c0df0dcc        0     1                 $t.21
c0df0dcd c0df0dcd        4     1                 io_seproxyhal_play_tune
c0df0dd0 c0df0dd0        6     2         build/flex/obj/sdk/io/src/os_io_seph_cmd.o:(.text.OUTLINED_FUNCTION_1)
c0df0dd0 c0df0dd0        0     1                 $t.31
c0df0dd1 c0df0dd1        6     1                 OUTLINED_FUNCTION_1
c0df0dd8 c0df0dd8       98     4         build/flex/obj/sdk/io/src/os_io_seph_ux.o:(.text.io_process_itc_ux_event)
c0df0dd8 c0df0dd8        0     1                 $t.2
c0df0dd9 c0df0dd9       98     1                 io_process_itc_ux_event
c0df0e6c c0df0e6c        0     1                 $d.3
c0df0e70 c0df0e70       98     4         build/flex/obj/sdk/io_legacy/src/os_io_legacy.o:(.text.io_seproxyhal_io_heartbeat)
c0df0e70 c0df0e70        0     1                 $t.3
c0df0e71 c0df0e71       98     1                 io_seproxyhal_io_heartbeat
c0df0efc c0df0efc        0     1                 $d.4
c0df0f08 c0df0f08       84     4         build/flex/obj/sdk/io_legacy/src/os_io_legacy.o:(.text.io_exchange)
c0df0f08 c0df0f08        0     1                 $t.10
c0df0f09 c0df0f09       84     1                 io_exchange
c0df0f80 c0df0f80        0     1                 $d.11
c0df0f8c c0df0f8c       34     4         build/flex/obj/sdk/io_legacy/src/os_io_legacy.o:(.text.io_legacy_apdu_tx)
c0df0f8c c0df0f8c        0     1                 $t.12
c0df0f8d c0df0f8d       34     1                 io_legacy_apdu_tx
c0df0fb4 c0df0fb4        0     1                 $d.13
c0df0fc0 c0df0fc0      274     4         build/flex/obj/sdk/io_legacy/src/os_io_legacy.o:(.text.io_legacy_apdu_rx)
c0df0fc0 c0df0fc0        0     1                 $t.14
c0df0fc1 c0df0fc1      274     1                 io_legacy_apdu_rx
c0df1214 c0df1214        0     1                 $d.15
c0df1234 c0df1234       50     4         build/flex/obj/sdk/io_legacy/src/os_io_legacy.o:(.text.io_seproxyhal_init)
c0df1234 c0df1234        0     1                 $t.16
c0df1235 c0df1235       50     1                 io_seproxyhal_init
c0df1274 c0df1274        0     1                 $d.17
c0df1284 c0df1284        8     2         build/flex/obj/sdk/io_legacy/src/os_io_legacy.o:(.text.OUTLINED_FUNCTION_0)
c0df1284 c0df1284        0     1                 $t.21
c0df1285 c0df1285        8     1                 OUTLINED_FUNCTION_0
c0df128c c0df128c       5e     2         build/flex/obj/sdk/lib_alloc/mem_alloc.o:(.text.mem_init)
c0df128c c0df128c        0     1                 $t.0
c0df128d c0df128d       5e     1                 mem_init
c0df12ea c0df12ea       3a     2         build/flex/obj/sdk/lib_alloc/mem_alloc.o:(.text.list_push)
c0df12ea c0df12ea        0     1                 $t.1
c0df12eb c0df12eb       3a     1                 list_push
c0df1324 c0df1324      10e     2         build/flex/obj/sdk/lib_alloc/mem_alloc.o:(.text.mem_alloc)
c0df1324 c0df1324        0     1                 $t.2
c0df1325 c0df1325      10e     1                 mem_alloc
c0df1432 c0df1432       3e     2         build/flex/obj/sdk/lib_alloc/mem_alloc.o:(.text.ensure_chunk_valid)
c0df1432 c0df1432        0     1                 $t.3
c0df1433 c0df1433       3e     1                 ensure_chunk_valid
c0df1470 c0df1470       2e     2         build/flex/obj/sdk/lib_alloc/mem_alloc.o:(.text.list_remove)
c0df1470 c0df1470        0     1                 $t.4
c0df1471 c0df1471       2e     1                 list_remove
c0df149e c0df149e       4e     2         build/flex/obj/sdk/lib_alloc/mem_alloc.o:(.text.mem_free)
c0df149e c0df149e        0     1                 $t.6
c0df149f c0df149f       4e     1                 mem_free
c0df14ec c0df14ec       8a     2         build/flex/obj/sdk/lib_alloc/mem_alloc.o:(.text.coalesce)
c0df14ec c0df14ec        0     1                 $t.7
c0df14ed c0df14ed       8a     1                 coalesce
c0df1576 c0df1576       2e     2         build/flex/obj/sdk/lib_alloc/mem_alloc.o:(.text.seglist_index)
c0df1576 c0df1576        0     1                 $t.12
c0df1577 c0df1577       2e     1                 seglist_index
c0df15a4 c0df15a4       42     2         build/flex/obj/sdk/lib_nbgl/src/nbgl_layout.o:(.text.layoutAddCallbackObj)
c0df15a4 c0df15a4        0     1                 $t.0
c0df15a5 c0df15a5       42     1                 layoutAddCallbackObj
c0df15e8 c0df15e8      1d0     4         build/flex/obj/sdk/lib_nbgl/src/nbgl_layout.o:(.text.nbgl_layoutGet)
c0df15e8 c0df15e8        0     1                 $t.2
c0df15e9 c0df15e9      1d0     1                 nbgl_layoutGet
c0df17a8 c0df17a8        0     1                 $d.3
c0df17b8 c0df17b8      30a     2         build/flex/obj/sdk/lib_nbgl/src/nbgl_layout.o:(.text.touchCallback)
c0df17b8 c0df17b8        0     1                 $t.4
c0df17b9 c0df17b9      30a     1                 touchCallback
c0df1ac4 c0df1ac4      5f0     4         build/flex/obj/sdk/lib_nbgl/src/nbgl_layout.o:(.text.nbgl_layoutAddUpFooter)
c0df1ac4 c0df1ac4        0     1                 $t.5
c0df1ac5 c0df1ac5      5f0     1                 nbgl_layoutAddUpFooter
c0df1ed4 c0df1ed4        0     1                 $d.6
c0df1edc c0df1edc        0     1                 $t.7
c0df20b4 c0df20b4       82     2         build/flex/obj/sdk/lib_nbgl/src/nbgl_layout.o:(.text.nbgl_layoutAddSwipe)
c0df20b4 c0df20b4        0     1                 $t.8
c0df20b5 c0df20b5       82     1                 nbgl_layoutAddSwipe
c0df2136 c0df2136       36     2         build/flex/obj/sdk/lib_nbgl/src/nbgl_layout.o:(.text.addSwipeInternal)
c0df2136 c0df2136        0     1                 $t.9
c0df2137 c0df2137       36     1                 addSwipeInternal
c0df216c c0df216c       7c     2         build/flex/obj/sdk/lib_nbgl/src/nbgl_layout.o:(.text.nbgl_layoutAddTopRightButton)
c0df216c c0df216c        0     1                 $t.11
c0df216d c0df216d       7c     1                 nbgl_layoutAddTopRightButton
c0df21e8 c0df21e8      71c     2         build/flex/obj/sdk/lib_nbgl/src/nbgl_layout.o:(.text.nbgl_layoutAddExtendedFooter)
c0df21e8 c0df21e8        0     1                 $t.13
c0df21e9 c0df21e9      71c     1                 nbgl_layoutAddExtendedFooter
c0df2904 c0df2904       3e     2         build/flex/obj/sdk/lib_nbgl/src/nbgl_layout.o:(.text.nbgl_layoutAddBottomButton)
c0df2904 c0df2904        0     1                 $t.14
c0df2905 c0df2905       3e     1                 nbgl_layoutAddBottomButton
c0df2942 c0df2942       52     2         build/flex/obj/sdk/lib_nbgl/src/nbgl_layout.o:(.text.nbgl_layoutAddTouchableBar)
c0df2942 c0df2942        0     1                 $t.15
c0df2943 c0df2943       52     1                 nbgl_layoutAddTouchableBar
c0df2994 c0df2994      4bc     4         build/flex/obj/sdk/lib_nbgl/src/nbgl_layout.o:(.text.addListItem)
c0df2994 c0df2994        0     1                 $t.16
c0df2995 c0df2995      4bc     1                 addListItem
c0df2e48 c0df2e48        0     1                 $d.17
c0df2e50 c0df2e50       4a     2         build/flex/obj/sdk/lib_nbgl/src/nbgl_layout.o:(.text.nbgl_layoutAddSwitch)
c0df2e50 c0df2e50        0     1                 $t.18
c0df2e51 c0df2e51       4a     1                 nbgl_layoutAddSwitch
c0df2e9a c0df2e9a       42     2         build/flex/obj/sdk/lib_nbgl/src/nbgl_layout.o:(.text.nbgl_layoutAddText)
c0df2e9a c0df2e9a        0     1                 $t.19
c0df2e9b c0df2e9b       42     1                 nbgl_layoutAddText
c0df2edc c0df2edc       54     4         build/flex/obj/sdk/lib_nbgl/src/nbgl_layout.o:(.text.nbgl_layoutAddTextWithAlias)
c0df2edc c0df2edc        0     1                 $t.20
c0df2edd c0df2edd       54     1                 nbgl_layoutAddTextWithAlias
c0df2f2c c0df2f2c        0     1                 $d.21
c0df2f30 c0df2f30      182     2         build/flex/obj/sdk/lib_nbgl/src/nbgl_layout.o:(.text.nbgl_layoutAddTextContent)
c0df2f30 c0df2f30        0     1                 $t.23
c0df2f31 c0df2f31      182     1                 nbgl_layoutAddTextContent
c0df30b4 c0df30b4      218     4         build/flex/obj/sdk/lib_nbgl/src/nbgl_layout.o:(.text.nbgl_layoutAddRadioChoice)
c0df30b4 c0df30b4        0     1                 $t.24
c0df30b5 c0df30b5      218     1                 nbgl_layoutAddRadioChoice
c0df32c4 c0df32c4        0     1                 $d.25
c0df32cc c0df32cc       26     2         build/flex/obj/sdk/lib_nbgl/src/nbgl_layout.o:(.text.createHorizontalLine)
c0df32cc c0df32cc        0     1                 $t.26
c0df32cd c0df32cd       26     1                 createHorizontalLine
c0df32f2 c0df32f2       7a     2         build/flex/obj/sdk/lib_nbgl/src/nbgl_layout.o:(.text.nbgl_layoutAddCenteredInfo)
c0df32f2 c0df32f2        0     1                 $t.27
c0df32f3 c0df32f3       7a     1                 nbgl_layoutAddCenteredInfo
c0df336c c0df336c      444     4         build/flex/obj/sdk/lib_nbgl/src/nbgl_layout.o:(.text.addContentCenter)
c0df336c c0df336c        0     1                 $t.28
c0df336d c0df336d      444     1                 addContentCenter
c0df37ac c0df37ac        0     1                 $d.29
c0df37b0 c0df37b0       12     2         build/flex/obj/sdk/lib_nbgl/src/nbgl_layout.o:(.text.nbgl_layoutAddContentCenter)
c0df37b0 c0df37b0        0     1                 $t.30
c0df37b1 c0df37b1       12     1                 nbgl_layoutAddContentCenter
c0df37c4 c0df37c4      2a8     4         build/flex/obj/sdk/lib_nbgl/src/nbgl_layout.o:(.text.nbgl_layoutAddLeftContent)
c0df37c4 c0df37c4        0     1                 $t.31
c0df37c5 c0df37c5      2a8     1                 nbgl_layoutAddLeftContent
c0df3a68 c0df3a68        0     1                 $d.32
c0df3a6c c0df3a6c      2ca     2         build/flex/obj/sdk/lib_nbgl/src/nbgl_layout.o:(.text.nbgl_layoutAddQRCode)
c0df3a6c c0df3a6c        0     1                 $t.33
c0df3a6d c0df3a6d      2ca     1                 nbgl_layoutAddQRCode
c0df3d36 c0df3d36       2c     2         build/flex/obj/sdk/lib_nbgl/src/nbgl_layout.o:(.text.nbgl_layoutAddChoiceButtons)
c0df3d36 c0df3d36        0     1                 $t.34
c0df3d37 c0df3d37       2c     1                 nbgl_layoutAddChoiceButtons
c0df3d62 c0df3d62       26     2         build/flex/obj/sdk/lib_nbgl/src/nbgl_layout.o:(.text.nbgl_layoutAddHorizontalButtons)
c0df3d62 c0df3d62        0     1                 $t.35
c0df3d63 c0df3d63       26     1                 nbgl_layoutAddHorizontalButtons
c0df3d88 c0df3d88      360     4         build/flex/obj/sdk/lib_nbgl/src/nbgl_layout.o:(.text.nbgl_layoutAddTagValueList)
c0df3d88 c0df3d88        0     1                 $t.36
c0df3d89 c0df3d89      360     1                 nbgl_layoutAddTagValueList
c0df40e0 c0df40e0        0     1                 $d.37
c0df40e8 c0df40e8       20     2         build/flex/obj/sdk/lib_nbgl/src/nbgl_layout.o:(.text.nbgl_layoutAddSeparationLine)
c0df40e8 c0df40e8        0     1                 $t.40
c0df40e9 c0df40e9       20     1                 nbgl_layoutAddSeparationLine
c0df4108 c0df4108      1b8     2         build/flex/obj/sdk/lib_nbgl/src/nbgl_layout.o:(.text.nbgl_layoutAddButton)
c0df4108 c0df4108        0     1                 $t.41
c0df4109 c0df4109      1b8     1                 nbgl_layoutAddButton
c0df42c0 c0df42c0       24     2         build/flex/obj/sdk/lib_nbgl/src/nbgl_layout.o:(.text.nbgl_layoutAddLongPressButton)
c0df42c0 c0df42c0        0     1                 $t.42
c0df42c1 c0df42c1       24     1                 nbgl_layoutAddLongPressButton
c0df42e4 c0df42e4       24     2         build/flex/obj/sdk/lib_nbgl/src/nbgl_layout.o:(.text.nbgl_layoutAddFooter)
c0df42e4 c0df42e4        0     1                 $t.43
c0df42e5 c0df42e5       24     1                 nbgl_layoutAddFooter
c0df4308 c0df4308       28     2         build/flex/obj/sdk/lib_nbgl/src/nbgl_layout.o:(.text.nbgl_layoutAddSplitFooter)
c0df4308 c0df4308        0     1                 $t.44
c0df4309 c0df4309       28     1                 nbgl_layoutAddSplitFooter
c0df4330 c0df4330      604     4         build/flex/obj/sdk/lib_nbgl/src/nbgl_layout.o:(.text.nbgl_layoutAddHeader)
c0df4330 c0df4330        0     1                 $t.45
c0df4331 c0df4331      604     1                 nbgl_layoutAddHeader
c0df479c c0df479c        0     1                 $d.46
c0df47a0 c0df47a0        0     1                 $t.47
c0df4934 c0df4934       36     2         build/flex/obj/sdk/lib_nbgl/src/nbgl_layout.o:(.text.nbgl_layoutAddProgressIndicator)
c0df4934 c0df4934        0     1                 $t.48
c0df4935 c0df4935       36     1                 nbgl_layoutAddProgressIndicator
c0df496c c0df496c      264     4         build/flex/obj/sdk/lib_nbgl/src/nbgl_layout.o:(.text.nbgl_layoutAddSpinner)
c0df496c c0df496c        0     1                 $t.49
c0df496d c0df496d      264     1                 nbgl_layoutAddSpinner
c0df4bc8 c0df4bc8        0     1                 $d.50
c0df4bd0 c0df4bd0       6c     4         build/flex/obj/sdk/lib_nbgl/src/nbgl_layout.o:(.text.spinnerTickerCallback)
c0df4bd0 c0df4bd0        0     1                 $t.51
c0df4bd1 c0df4bd1       6c     1                 spinnerTickerCallback
c0df4c38 c0df4c38        0     1                 $d.52
c0df4c3c c0df4c3c      146     2         build/flex/obj/sdk/lib_nbgl/src/nbgl_layout.o:(.text.nbgl_layoutUpdateSpinner)
c0df4c3c c0df4c3c        0     1                 $t.53
c0df4c3d c0df4c3d      146     1                 nbgl_layoutUpdateSpinner
c0df4d82 c0df4d82       3e     2         build/flex/obj/sdk/lib_nbgl/src/nbgl_layout.o:(.text.nbgl_layoutDraw)
c0df4d82 c0df4d82        0     1                 $t.54
c0df4d83 c0df4d83       3e     1                 nbgl_layoutDraw
c0df4dc0 c0df4dc0       60     4         build/flex/obj/sdk/lib_nbgl/src/nbgl_layout.o:(.text.nbgl_layoutRelease)
c0df4dc0 c0df4dc0        0     1                 $t.55
c0df4dc1 c0df4dc1       60     1                 nbgl_layoutRelease
c0df4e1c c0df4e1c        0     1                 $d.56
c0df4e20 c0df4e20       4c     4         build/flex/obj/sdk/lib_nbgl/src/nbgl_layout.o:(.text.getLayoutAndLayoutObj)
c0df4e20 c0df4e20        0     1                 $t.57
c0df4e21 c0df4e21       4c     1                 getLayoutAndLayoutObj
c0df4e68 c0df4e68        0     1                 $d.58
c0df4e6c c0df4e6c      104     4         build/flex/obj/sdk/lib_nbgl/src/nbgl_layout.o:(.text.animTickerCallback)
c0df4e6c c0df4e6c        0     1                 $t.59
c0df4e6d c0df4e6d      104     1                 animTickerCallback
c0df4f6c c0df4f6c        0     1                 $d.60
c0df4f70 c0df4f70       28     2         build/flex/obj/sdk/lib_nbgl/src/nbgl_layout.o:(.text.OUTLINED_FUNCTION_0)
c0df4f70 c0df4f70        0     1                 $t.61
c0df4f71 c0df4f71       28     1                 OUTLINED_FUNCTION_0
c0df4f98 c0df4f98        c     2         build/flex/obj/sdk/lib_nbgl/src/nbgl_layout.o:(.text.OUTLINED_FUNCTION_1)
c0df4f98 c0df4f98        0     1                 $t.62
c0df4f99 c0df4f99        c     1                 OUTLINED_FUNCTION_1
c0df4fa4 c0df4fa4        8     2         build/flex/obj/sdk/lib_nbgl/src/nbgl_layout.o:(.text.OUTLINED_FUNCTION_2)
c0df4fa4 c0df4fa4        0     1                 $t.63
c0df4fa5 c0df4fa5        8     1                 OUTLINED_FUNCTION_2
c0df4fac c0df4fac       28     2         build/flex/obj/sdk/lib_nbgl/src/nbgl_layout.o:(.text.OUTLINED_FUNCTION_3)
c0df4fac c0df4fac        0     1                 $t.64
c0df4fad c0df4fad       28     1                 OUTLINED_FUNCTION_3
c0df4fd4 c0df4fd4       34     2         build/flex/obj/sdk/lib_nbgl/src/nbgl_layout.o:(.text.OUTLINED_FUNCTION_4)
c0df4fd4 c0df4fd4        0     1                 $t.65
c0df4fd5 c0df4fd5       34     1                 OUTLINED_FUNCTION_4
c0df5008 c0df5008       1c     2         build/flex/obj/sdk/lib_nbgl/src/nbgl_layout.o:(.text.OUTLINED_FUNCTION_5)
c0df5008 c0df5008        0     1                 $t.66
c0df5009 c0df5009       1c     1                 OUTLINED_FUNCTION_5
c0df5024 c0df5024       1c     2         build/flex/obj/sdk/lib_nbgl/src/nbgl_layout.o:(.text.OUTLINED_FUNCTION_6)
c0df5024 c0df5024        0     1                 $t.67
c0df5025 c0df5025       1c     1                 OUTLINED_FUNCTION_6
c0df5040 c0df5040       2c     2         build/flex/obj/sdk/lib_nbgl/src/nbgl_layout.o:(.text.OUTLINED_FUNCTION_7)
c0df5040 c0df5040        0     1                 $t.68
c0df5041 c0df5041       2c     1                 OUTLINED_FUNCTION_7
c0df506c c0df506c        c     2         build/flex/obj/sdk/lib_nbgl/src/nbgl_layout.o:(.text.OUTLINED_FUNCTION_8)
c0df506c c0df506c        0     1                 $t.69
c0df506d c0df506d        c     1                 OUTLINED_FUNCTION_8
c0df5078 c0df5078       14     2         build/flex/obj/sdk/lib_nbgl/src/nbgl_layout.o:(.text.OUTLINED_FUNCTION_9)
c0df5078 c0df5078        0     1                 $t.70
c0df5079 c0df5079       14     1                 OUTLINED_FUNCTION_9
c0df508c c0df508c       30     2         build/flex/obj/sdk/lib_nbgl/src/nbgl_layout.o:(.text.OUTLINED_FUNCTION_10)
c0df508c c0df508c        0     1                 $t.71
c0df508d c0df508d       30     1                 OUTLINED_FUNCTION_10
c0df50bc c0df50bc       2c     2         build/flex/obj/sdk/lib_nbgl/src/nbgl_layout.o:(.text.OUTLINED_FUNCTION_11)
c0df50bc c0df50bc        0     1                 $t.72
c0df50bd c0df50bd       2c     1                 OUTLINED_FUNCTION_11
c0df50e8 c0df50e8        e     2         build/flex/obj/sdk/lib_nbgl/src/nbgl_layout.o:(.text.OUTLINED_FUNCTION_12)
c0df50e8 c0df50e8        0     1                 $t.73
c0df50e9 c0df50e9        e     1                 OUTLINED_FUNCTION_12
c0df50f6 c0df50f6       2e     2         build/flex/obj/sdk/lib_nbgl/src/nbgl_layout.o:(.text.OUTLINED_FUNCTION_13)
c0df50f6 c0df50f6        0     1                 $t.74
c0df50f7 c0df50f7       2e     1                 OUTLINED_FUNCTION_13
c0df5124 c0df5124        8     2         build/flex/obj/sdk/lib_nbgl/src/nbgl_layout.o:(.text.OUTLINED_FUNCTION_14)
c0df5124 c0df5124        0     1                 $t.75
c0df5125 c0df5125        8     1                 OUTLINED_FUNCTION_14
c0df512c c0df512c       2c     2         build/flex/obj/sdk/lib_nbgl/src/nbgl_layout.o:(.text.OUTLINED_FUNCTION_15)
c0df512c c0df512c        0     1                 $t.76
c0df512d c0df512d       2c     1                 OUTLINED_FUNCTION_15
c0df5158 c0df5158        8     2         build/flex/obj/sdk/lib_nbgl/src/nbgl_layout.o:(.text.OUTLINED_FUNCTION_16)
c0df5158 c0df5158        0     1                 $t.77
c0df5159 c0df5159        8     1                 OUTLINED_FUNCTION_16
c0df5160 c0df5160        a     2         build/flex/obj/sdk/lib_nbgl/src/nbgl_layout.o:(.text.OUTLINED_FUNCTION_17)
c0df5160 c0df5160        0     1                 $t.78
c0df5161 c0df5161        a     1                 OUTLINED_FUNCTION_17
c0df516a c0df516a       18     2         build/flex/obj/sdk/lib_nbgl/src/nbgl_layout.o:(.text.OUTLINED_FUNCTION_18)
c0df516a c0df516a        0     1                 $t.79
c0df516b c0df516b       18     1                 OUTLINED_FUNCTION_18
c0df5182 c0df5182        8     2         build/flex/obj/sdk/lib_nbgl/src/nbgl_layout.o:(.text.OUTLINED_FUNCTION_19)
c0df5182 c0df5182        0     1                 $t.80
c0df5183 c0df5183        8     1                 OUTLINED_FUNCTION_19
c0df518a c0df518a        a     2         build/flex/obj/sdk/lib_nbgl/src/nbgl_layout.o:(.text.OUTLINED_FUNCTION_20)
c0df518a c0df518a        0     1                 $t.81
c0df518b c0df518b        a     1                 OUTLINED_FUNCTION_20
c0df5194 c0df5194        6     2         build/flex/obj/sdk/lib_nbgl/src/nbgl_layout.o:(.text.OUTLINED_FUNCTION_21)
c0df5194 c0df5194        0     1                 $t.82
c0df5195 c0df5195        6     1                 OUTLINED_FUNCTION_21
c0df519a c0df519a       10     2         build/flex/obj/sdk/lib_nbgl/src/nbgl_layout.o:(.text.OUTLINED_FUNCTION_22)
c0df519a c0df519a        0     1                 $t.83
c0df519b c0df519b       10     1                 OUTLINED_FUNCTION_22
c0df51aa c0df51aa       24     2         build/flex/obj/sdk/lib_nbgl/src/nbgl_layout.o:(.text.OUTLINED_FUNCTION_23)
c0df51aa c0df51aa        0     1                 $t.84
c0df51ab c0df51ab       24     1                 OUTLINED_FUNCTION_23
c0df51ce c0df51ce       14     2         build/flex/obj/sdk/lib_nbgl/src/nbgl_layout.o:(.text.OUTLINED_FUNCTION_24)
c0df51ce c0df51ce        0     1                 $t.85
c0df51cf c0df51cf       14     1                 OUTLINED_FUNCTION_24
c0df51e2 c0df51e2        8     2         build/flex/obj/sdk/lib_nbgl/src/nbgl_layout.o:(.text.OUTLINED_FUNCTION_25)
c0df51e2 c0df51e2        0     1                 $t.86
c0df51e3 c0df51e3        8     1                 OUTLINED_FUNCTION_25
c0df51ea c0df51ea       20     2         build/flex/obj/sdk/lib_nbgl/src/nbgl_layout.o:(.text.OUTLINED_FUNCTION_26)
c0df51ea c0df51ea        0     1                 $t.87
c0df51eb c0df51eb       20     1                 OUTLINED_FUNCTION_26
c0df520a c0df520a        a     2         build/flex/obj/sdk/lib_nbgl/src/nbgl_layout.o:(.text.OUTLINED_FUNCTION_27)
c0df520a c0df520a        0     1                 $t.88
c0df520b c0df520b        a     1                 OUTLINED_FUNCTION_27
c0df5214 c0df5214       1e     2         build/flex/obj/sdk/lib_nbgl/src/nbgl_layout.o:(.text.OUTLINED_FUNCTION_28)
c0df5214 c0df5214        0     1                 $t.89
c0df5215 c0df5215       1e     1                 OUTLINED_FUNCTION_28
c0df5232 c0df5232       1e     2         build/flex/obj/sdk/lib_nbgl/src/nbgl_layout.o:(.text.OUTLINED_FUNCTION_29)
c0df5232 c0df5232        0     1                 $t.90
c0df5233 c0df5233       1e     1                 OUTLINED_FUNCTION_29
c0df5250 c0df5250       12     2         build/flex/obj/sdk/lib_nbgl/src/nbgl_layout.o:(.text.OUTLINED_FUNCTION_30)
c0df5250 c0df5250        0     1                 $t.91
c0df5251 c0df5251       12     1                 OUTLINED_FUNCTION_30
c0df5262 c0df5262       12     2         build/flex/obj/sdk/lib_nbgl/src/nbgl_layout.o:(.text.OUTLINED_FUNCTION_31)
c0df5262 c0df5262        0     1                 $t.92
c0df5263 c0df5263       12     1                 OUTLINED_FUNCTION_31
c0df5274 c0df5274       12     2         build/flex/obj/sdk/lib_nbgl/src/nbgl_layout.o:(.text.OUTLINED_FUNCTION_32)
c0df5274 c0df5274        0     1                 $t.93
c0df5275 c0df5275       12     1                 OUTLINED_FUNCTION_32
c0df5286 c0df5286       1c     2         build/flex/obj/sdk/lib_nbgl/src/nbgl_layout.o:(.text.OUTLINED_FUNCTION_33)
c0df5286 c0df5286        0     1                 $t.94
c0df5287 c0df5287       1c     1                 OUTLINED_FUNCTION_33
c0df52a2 c0df52a2       1c     2         build/flex/obj/sdk/lib_nbgl/src/nbgl_layout.o:(.text.OUTLINED_FUNCTION_34)
c0df52a2 c0df52a2        0     1                 $t.95
c0df52a3 c0df52a3       1c     1                 OUTLINED_FUNCTION_34
c0df52be c0df52be       16     2         build/flex/obj/sdk/lib_nbgl/src/nbgl_layout.o:(.text.OUTLINED_FUNCTION_35)
c0df52be c0df52be        0     1                 $t.96
c0df52bf c0df52bf       16     1                 OUTLINED_FUNCTION_35
c0df52d4 c0df52d4        a     2         build/flex/obj/sdk/lib_nbgl/src/nbgl_layout.o:(.text.OUTLINED_FUNCTION_36)
c0df52d4 c0df52d4        0     1                 $t.97
c0df52d5 c0df52d5        a     1                 OUTLINED_FUNCTION_36
c0df52de c0df52de       18     2         build/flex/obj/sdk/lib_nbgl/src/nbgl_layout.o:(.text.OUTLINED_FUNCTION_37)
c0df52de c0df52de        0     1                 $t.98
c0df52df c0df52df       18     1                 OUTLINED_FUNCTION_37
c0df52f6 c0df52f6        e     2         build/flex/obj/sdk/lib_nbgl/src/nbgl_layout.o:(.text.OUTLINED_FUNCTION_38)
c0df52f6 c0df52f6        0     1                 $t.99
c0df52f7 c0df52f7        e     1                 OUTLINED_FUNCTION_38
c0df5304 c0df5304        6     2         build/flex/obj/sdk/lib_nbgl/src/nbgl_layout.o:(.text.OUTLINED_FUNCTION_39)
c0df5304 c0df5304        0     1                 $t.100
c0df5305 c0df5305        6     1                 OUTLINED_FUNCTION_39
c0df530a c0df530a        e     2         build/flex/obj/sdk/lib_nbgl/src/nbgl_layout.o:(.text.OUTLINED_FUNCTION_40)
c0df530a c0df530a        0     1                 $t.101
c0df530b c0df530b        e     1                 OUTLINED_FUNCTION_40
c0df5318 c0df5318       16     2         build/flex/obj/sdk/lib_nbgl/src/nbgl_layout.o:(.text.OUTLINED_FUNCTION_41)
c0df5318 c0df5318        0     1                 $t.102
c0df5319 c0df5319       16     1                 OUTLINED_FUNCTION_41
c0df532e c0df532e       14     2         build/flex/obj/sdk/lib_nbgl/src/nbgl_layout.o:(.text.OUTLINED_FUNCTION_42)
c0df532e c0df532e        0     1                 $t.103
c0df532f c0df532f       14     1                 OUTLINED_FUNCTION_42
c0df5342 c0df5342       14     2         build/flex/obj/sdk/lib_nbgl/src/nbgl_layout.o:(.text.OUTLINED_FUNCTION_43)
c0df5342 c0df5342        0     1                 $t.104
c0df5343 c0df5343       14     1                 OUTLINED_FUNCTION_43
c0df5356 c0df5356       14     2         build/flex/obj/sdk/lib_nbgl/src/nbgl_layout.o:(.text.OUTLINED_FUNCTION_44)
c0df5356 c0df5356        0     1                 $t.105
c0df5357 c0df5357       14     1                 OUTLINED_FUNCTION_44
c0df536a c0df536a        6     2         build/flex/obj/sdk/lib_nbgl/src/nbgl_layout.o:(.text.OUTLINED_FUNCTION_45)
c0df536a c0df536a        0     1                 $t.106
c0df536b c0df536b        6     1                 OUTLINED_FUNCTION_45
c0df5370 c0df5370       14     2         build/flex/obj/sdk/lib_nbgl/src/nbgl_layout.o:(.text.OUTLINED_FUNCTION_46)
c0df5370 c0df5370        0     1                 $t.107
c0df5371 c0df5371       14     1                 OUTLINED_FUNCTION_46
c0df5384 c0df5384       12     2         build/flex/obj/sdk/lib_nbgl/src/nbgl_layout.o:(.text.OUTLINED_FUNCTION_47)
c0df5384 c0df5384        0     1                 $t.108
c0df5385 c0df5385       12     1                 OUTLINED_FUNCTION_47
c0df5396 c0df5396       12     2         build/flex/obj/sdk/lib_nbgl/src/nbgl_layout.o:(.text.OUTLINED_FUNCTION_48)
c0df5396 c0df5396        0     1                 $t.109
c0df5397 c0df5397       12     1                 OUTLINED_FUNCTION_48
c0df53a8 c0df53a8        c     2         build/flex/obj/sdk/lib_nbgl/src/nbgl_layout.o:(.text.OUTLINED_FUNCTION_49)
c0df53a8 c0df53a8        0     1                 $t.110
c0df53a9 c0df53a9        c     1                 OUTLINED_FUNCTION_49
c0df53b4 c0df53b4        c     2         build/flex/obj/sdk/lib_nbgl/src/nbgl_layout.o:(.text.OUTLINED_FUNCTION_50)
c0df53b4 c0df53b4        0     1                 $t.111
c0df53b5 c0df53b5        c     1                 OUTLINED_FUNCTION_50
c0df53c0 c0df53c0        6     2         build/flex/obj/sdk/lib_nbgl/src/nbgl_layout.o:(.text.OUTLINED_FUNCTION_51)
c0df53c0 c0df53c0        0     1                 $t.112
c0df53c1 c0df53c1        6     1                 OUTLINED_FUNCTION_51
c0df53c6 c0df53c6        c     2         build/flex/obj/sdk/lib_nbgl/src/nbgl_layout.o:(.text.OUTLINED_FUNCTION_52)
c0df53c6 c0df53c6        0     1                 $t.113
c0df53c7 c0df53c7        c     1                 OUTLINED_FUNCTION_52
c0df53d2 c0df53d2        c     2         build/flex/obj/sdk/lib_nbgl/src/nbgl_layout.o:(.text.OUTLINED_FUNCTION_53)
c0df53d2 c0df53d2        0     1                 $t.114
c0df53d3 c0df53d3        c     1                 OUTLINED_FUNCTION_53
c0df53de c0df53de        a     2         build/flex/obj/sdk/lib_nbgl/src/nbgl_layout.o:(.text.OUTLINED_FUNCTION_54)
c0df53de c0df53de        0     1                 $t.115
c0df53df c0df53df        a     1                 OUTLINED_FUNCTION_54
c0df53e8 c0df53e8        c     2         build/flex/obj/sdk/lib_nbgl/src/nbgl_layout.o:(.text.OUTLINED_FUNCTION_55)
c0df53e8 c0df53e8        0     1                 $t.116
c0df53e9 c0df53e9        c     1                 OUTLINED_FUNCTION_55
c0df53f4 c0df53f4        8     2         build/flex/obj/sdk/lib_nbgl/src/nbgl_layout.o:(.text.OUTLINED_FUNCTION_56)
c0df53f4 c0df53f4        0     1                 $t.117
c0df53f5 c0df53f5        8     1                 OUTLINED_FUNCTION_56
c0df53fc c0df53fc        c     2         build/flex/obj/sdk/lib_nbgl/src/nbgl_layout.o:(.text.OUTLINED_FUNCTION_57)
c0df53fc c0df53fc        0     1                 $t.118
c0df53fd c0df53fd        c     1                 OUTLINED_FUNCTION_57
c0df5408 c0df5408        c     2         build/flex/obj/sdk/lib_nbgl/src/nbgl_layout.o:(.text.OUTLINED_FUNCTION_58)
c0df5408 c0df5408        0     1                 $t.119
c0df5409 c0df5409        c     1                 OUTLINED_FUNCTION_58
c0df5414 c0df5414       10     2         build/flex/obj/sdk/lib_nbgl/src/nbgl_layout.o:(.text.OUTLINED_FUNCTION_59)
c0df5414 c0df5414        0     1                 $t.120
c0df5415 c0df5415       10     1                 OUTLINED_FUNCTION_59
c0df5424 c0df5424       10     2         build/flex/obj/sdk/lib_nbgl/src/nbgl_layout.o:(.text.OUTLINED_FUNCTION_60)
c0df5424 c0df5424        0     1                 $t.121
c0df5425 c0df5425       10     1                 OUTLINED_FUNCTION_60
c0df5434 c0df5434        8     2         build/flex/obj/sdk/lib_nbgl/src/nbgl_layout.o:(.text.OUTLINED_FUNCTION_61)
c0df5434 c0df5434        0     1                 $t.122
c0df5435 c0df5435        8     1                 OUTLINED_FUNCTION_61
c0df543c c0df543c       10     2         build/flex/obj/sdk/lib_nbgl/src/nbgl_layout.o:(.text.OUTLINED_FUNCTION_62)
c0df543c c0df543c        0     1                 $t.123
c0df543d c0df543d       10     1                 OUTLINED_FUNCTION_62
c0df544c c0df544c        8     2         build/flex/obj/sdk/lib_nbgl/src/nbgl_layout.o:(.text.OUTLINED_FUNCTION_63)
c0df544c c0df544c        0     1                 $t.124
c0df544d c0df544d        8     1                 OUTLINED_FUNCTION_63
c0df5454 c0df5454        e     2         build/flex/obj/sdk/lib_nbgl/src/nbgl_layout.o:(.text.OUTLINED_FUNCTION_64)
c0df5454 c0df5454        0     1                 $t.125
c0df5455 c0df5455        e     1                 OUTLINED_FUNCTION_64
c0df5462 c0df5462        e     2         build/flex/obj/sdk/lib_nbgl/src/nbgl_layout.o:(.text.OUTLINED_FUNCTION_65)
c0df5462 c0df5462        0     1                 $t.126
c0df5463 c0df5463        e     1                 OUTLINED_FUNCTION_65
c0df5470 c0df5470        e     2         build/flex/obj/sdk/lib_nbgl/src/nbgl_layout.o:(.text.OUTLINED_FUNCTION_66)
c0df5470 c0df5470        0     1                 $t.127
c0df5471 c0df5471        e     1                 OUTLINED_FUNCTION_66
c0df547e c0df547e        a     2         build/flex/obj/sdk/lib_nbgl/src/nbgl_layout.o:(.text.OUTLINED_FUNCTION_67)
c0df547e c0df547e        0     1                 $t.128
c0df547f c0df547f        a     1                 OUTLINED_FUNCTION_67
c0df5488 c0df5488        e     2         build/flex/obj/sdk/lib_nbgl/src/nbgl_layout.o:(.text.OUTLINED_FUNCTION_68)
c0df5488 c0df5488        0     1                 $t.129
c0df5489 c0df5489        e     1                 OUTLINED_FUNCTION_68
c0df5496 c0df5496        e     2         build/flex/obj/sdk/lib_nbgl/src/nbgl_layout.o:(.text.OUTLINED_FUNCTION_69)
c0df5496 c0df5496        0     1                 $t.130
c0df5497 c0df5497        e     1                 OUTLINED_FUNCTION_69
c0df54a4 c0df54a4        e     2         build/flex/obj/sdk/lib_nbgl/src/nbgl_layout.o:(.text.OUTLINED_FUNCTION_70)
c0df54a4 c0df54a4        0     1                 $t.131
c0df54a5 c0df54a5        e     1                 OUTLINED_FUNCTION_70
c0df54b2 c0df54b2        a     2         build/flex/obj/sdk/lib_nbgl/src/nbgl_layout.o:(.text.OUTLINED_FUNCTION_71)
c0df54b2 c0df54b2        0     1                 $t.132
c0df54b3 c0df54b3        a     1                 OUTLINED_FUNCTION_71
c0df54bc c0df54bc        e     2         build/flex/obj/sdk/lib_nbgl/src/nbgl_layout.o:(.text.OUTLINED_FUNCTION_72)
c0df54bc c0df54bc        0     1                 $t.133
c0df54bd c0df54bd        e     1                 OUTLINED_FUNCTION_72
c0df54ca c0df54ca        e     2         build/flex/obj/sdk/lib_nbgl/src/nbgl_layout.o:(.text.OUTLINED_FUNCTION_73)
c0df54ca c0df54ca        0     1                 $t.134
c0df54cb c0df54cb        e     1                 OUTLINED_FUNCTION_73
c0df54d8 c0df54d8        a     2         build/flex/obj/sdk/lib_nbgl/src/nbgl_layout.o:(.text.OUTLINED_FUNCTION_74)
c0df54d8 c0df54d8        0     1                 $t.135
c0df54d9 c0df54d9        a     1                 OUTLINED_FUNCTION_74
c0df54e2 c0df54e2        e     2         build/flex/obj/sdk/lib_nbgl/src/nbgl_layout.o:(.text.OUTLINED_FUNCTION_75)
c0df54e2 c0df54e2        0     1                 $t.136
c0df54e3 c0df54e3        e     1                 OUTLINED_FUNCTION_75
c0df54f0 c0df54f0       a8     2         build/flex/obj/sdk/lib_nbgl/src/nbgl_layout_navigation.o:(.text.layoutNavigationCallback)
c0df54f0 c0df54f0        0     1                 $t.0
c0df54f1 c0df54f1       a8     1                 layoutNavigationCallback
c0df5598 c0df5598       40     2         build/flex/obj/sdk/lib_nbgl/src/nbgl_layout_navigation.o:(.text.configButtons)
c0df5598 c0df5598        0     1                 $t.1
c0df5599 c0df5599       40     1                 configButtons
c0df55d8 c0df55d8      20c     4         build/flex/obj/sdk/lib_nbgl/src/nbgl_layout_navigation.o:(.text.layoutNavigationPopulate)
c0df55d8 c0df55d8        0     1                 $t.2
c0df55d9 c0df55d9      20c     1                 layoutNavigationPopulate
c0df57d0 c0df57d0        0     1                 $d.3
c0df57e4 c0df57e4       1a     2         build/flex/obj/sdk/lib_nbgl/src/nbgl_layout_navigation.o:(.text.OUTLINED_FUNCTION_0)
c0df57e4 c0df57e4        0     1                 $t.4
c0df57e5 c0df57e5       1a     1                 OUTLINED_FUNCTION_0
c0df57fe c0df57fe       12     2         build/flex/obj/sdk/lib_nbgl/src/nbgl_layout_navigation.o:(.text.OUTLINED_FUNCTION_1)
c0df57fe c0df57fe        0     1                 $t.5
c0df57ff c0df57ff       12     1                 OUTLINED_FUNCTION_1
c0df5810 c0df5810      1f4     4         build/flex/obj/sdk/lib_nbgl/src/nbgl_page.o:(.text.nbgl_pageDrawInfo)
c0df5810 c0df5810        0     1                 $t.3
c0df5811 c0df5811      1f4     1                 nbgl_pageDrawInfo
c0df59e4 c0df59e4        0     1                 $d.4
c0df5a04 c0df5a04       20     2         build/flex/obj/sdk/lib_nbgl/src/nbgl_page.o:(.text.addEmptyHeader)
c0df5a04 c0df5a04        0     1                 $t.5
c0df5a05 c0df5a05       20     1                 addEmptyHeader
c0df5a24 c0df5a24       74     4         build/flex/obj/sdk/lib_nbgl/src/nbgl_page.o:(.text.nbgl_pageDrawConfirmation)
c0df5a24 c0df5a24        0     1                 $t.6
c0df5a25 c0df5a25       74     1                 nbgl_pageDrawConfirmation
c0df5a94 c0df5a94        0     1                 $d.7
c0df5a98 c0df5a98      448     4         build/flex/obj/sdk/lib_nbgl/src/nbgl_page.o:(.text.nbgl_pageDrawGenericContentExt)
c0df5a98 c0df5a98        0     1                 $t.8
c0df5a99 c0df5a99      448     1                 nbgl_pageDrawGenericContentExt
c0df5edc c0df5edc        0     1                 $d.9
c0df5ee0 c0df5ee0        6     2         build/flex/obj/sdk/lib_nbgl/src/nbgl_page.o:(.text.nbgl_pageDrawGenericContent)
c0df5ee0 c0df5ee0        0     1                 $t.10
c0df5ee1 c0df5ee1        6     1                 nbgl_pageDrawGenericContent
c0df5ee6 c0df5ee6        4     2         build/flex/obj/sdk/lib_nbgl/src/nbgl_page.o:(.text.nbgl_pageRelease)
c0df5ee6 c0df5ee6        0     1                 $t.11
c0df5ee7 c0df5ee7        4     1                 nbgl_pageRelease
c0df5eea c0df5eea        8     2         build/flex/obj/sdk/lib_nbgl/src/nbgl_page.o:(.text.OUTLINED_FUNCTION_0)
c0df5eea c0df5eea        0     1                 $t.12
c0df5eeb c0df5eeb        8     1                 OUTLINED_FUNCTION_0
c0df5ef2 c0df5ef2       12     2         build/flex/obj/sdk/lib_nbgl/src/nbgl_page.o:(.text.OUTLINED_FUNCTION_1)
c0df5ef2 c0df5ef2        0     1                 $t.13
c0df5ef3 c0df5ef3       12     1                 OUTLINED_FUNCTION_1
c0df5f04 c0df5f04        c     2         build/flex/obj/sdk/lib_nbgl/src/nbgl_page.o:(.text.OUTLINED_FUNCTION_2)
c0df5f04 c0df5f04        0     1                 $t.14
c0df5f05 c0df5f05        c     1                 OUTLINED_FUNCTION_2
c0df5f10 c0df5f10        e     2         build/flex/obj/sdk/lib_nbgl/src/nbgl_page.o:(.text.OUTLINED_FUNCTION_3)
c0df5f10 c0df5f10        0     1                 $t.15
c0df5f11 c0df5f11        e     1                 OUTLINED_FUNCTION_3
c0df5f1e c0df5f1e        6     2         build/flex/obj/sdk/lib_nbgl/src/nbgl_page.o:(.text.OUTLINED_FUNCTION_4)
c0df5f1e c0df5f1e        0     1                 $t.16
c0df5f1f c0df5f1f        6     1                 OUTLINED_FUNCTION_4
c0df5f24 c0df5f24        e     2         build/flex/obj/sdk/lib_nbgl/src/nbgl_page.o:(.text.OUTLINED_FUNCTION_5)
c0df5f24 c0df5f24        0     1                 $t.17
c0df5f25 c0df5f25        e     1                 OUTLINED_FUNCTION_5
c0df5f32 c0df5f32        a     2         build/flex/obj/sdk/lib_nbgl/src/nbgl_page.o:(.text.OUTLINED_FUNCTION_6)
c0df5f32 c0df5f32        0     1                 $t.18
c0df5f33 c0df5f33        a     1                 OUTLINED_FUNCTION_6
c0df5f3c c0df5f3c      136     2         build/flex/obj/sdk/lib_nbgl/src/nbgl_use_case.o:(.text.getNbTagValuesInPage)
c0df5f3c c0df5f3c        0     1                 $t.1
c0df5f3d c0df5f3d      136     1                 getNbTagValuesInPage
c0df6072 c0df6072       5e     2         build/flex/obj/sdk/lib_nbgl/src/nbgl_use_case.o:(.text.nbgl_useCaseGetNbInfosInPage)
c0df6072 c0df6072        0     1                 $t.3
c0df6073 c0df6073       5e     1                 nbgl_useCaseGetNbInfosInPage
c0df60d0 c0df60d0       82     2         build/flex/obj/sdk/lib_nbgl/src/nbgl_use_case.o:(.text.nbgl_useCaseGetNbSwitchesInPage)
c0df60d0 c0df60d0        0     1                 $t.4
c0df60d1 c0df60d1       82     1                 nbgl_useCaseGetNbSwitchesInPage
c0df6152 c0df6152       40     2         build/flex/obj/sdk/lib_nbgl/src/nbgl_use_case.o:(.text.nbgl_useCaseGetNbBarsInPage)
c0df6152 c0df6152        0     1                 $t.5
c0df6153 c0df6153       40     1                 nbgl_useCaseGetNbBarsInPage
c0df6192 c0df6192       3c     2         build/flex/obj/sdk/lib_nbgl/src/nbgl_use_case.o:(.text.nbgl_useCaseGetNbChoicesInPage)
c0df6192 c0df6192        0     1                 $t.6
c0df6193 c0df6193       3c     1                 nbgl_useCaseGetNbChoicesInPage
c0df61d0 c0df61d0      134     4         build/flex/obj/sdk/lib_nbgl/src/nbgl_use_case.o:(.text.useCaseHomeExt)
c0df61d0 c0df61d0        0     1                 $t.9
c0df61d1 c0df61d1      134     1                 useCaseHomeExt
c0df62e0 c0df62e0        0     1                 $d.10
c0df6304 c0df6304       2c     4         build/flex/obj/sdk/lib_nbgl/src/nbgl_use_case.o:(.text.reset_callbacks_and_context)
c0df6304 c0df6304        0     1                 $t.14
c0df6305 c0df6305       2c     1                 reset_callbacks_and_context
c0df6328 c0df6328        0     1                 $d.15
c0df6330 c0df6330       78     4         build/flex/obj/sdk/lib_nbgl/src/nbgl_use_case.o:(.text.prepareNavInfo)
c0df6330 c0df6330        0     1                 $t.16
c0df6331 c0df6331       78     1                 prepareNavInfo
c0df63a4 c0df63a4        0     1                 $d.17
c0df63a8 c0df63a8       64     4         build/flex/obj/sdk/lib_nbgl/src/nbgl_use_case.o:(.text.displaySettingsPage)
c0df63a8 c0df63a8        0     1                 $t.18
c0df63a9 c0df63a9       64     1                 displaySettingsPage
c0df6404 c0df6404        0     1                 $d.19
c0df640c c0df640c       b4     4         build/flex/obj/sdk/lib_nbgl/src/nbgl_use_case.o:(.text.nbgl_useCaseGenericSettings)
c0df640c c0df640c        0     1                 $t.21
c0df640d c0df640d       b4     1                 nbgl_useCaseGenericSettings
c0df64b4 c0df64b4        0     1                 $d.22
c0df64c0 c0df64c0       50     4         build/flex/obj/sdk/lib_nbgl/src/nbgl_use_case.o:(.text.getNbPagesForGenericContents)
c0df64c0 c0df64c0        0     1                 $t.23
c0df64c1 c0df64c1       50     1                 getNbPagesForGenericContents
c0df650c c0df650c        0     1                 $d.24
c0df6510 c0df6510      124     4         build/flex/obj/sdk/lib_nbgl/src/nbgl_use_case.o:(.text.getNbPagesForContent)
c0df6510 c0df6510        0     1                 $t.25
c0df6511 c0df6511      124     1                 getNbPagesForContent
c0df662c c0df662c        0     1                 $d.26
c0df6634 c0df6634      410     4         build/flex/obj/sdk/lib_nbgl/src/nbgl_use_case.o:(.text.displayGenericContextPage)
c0df6634 c0df6634        0     1                 $t.27
c0df6635 c0df6635      410     1                 displayGenericContextPage
c0df6a20 c0df6a20        0     1                 $d.28
c0df6a44 c0df6a44       68     4         build/flex/obj/sdk/lib_nbgl/src/nbgl_use_case.o:(.text.nbgl_useCaseHomeAndSettings)
c0df6a44 c0df6a44        0     1                 $t.30
c0df6a45 c0df6a45       68     1                 nbgl_useCaseHomeAndSettings
c0df6aa8 c0df6aa8        0     1                 $d.31
c0df6aac c0df6aac       28     4         build/flex/obj/sdk/lib_nbgl/src/nbgl_use_case.o:(.text.bundleNavStartSettingsAtPage)
c0df6aac c0df6aac        0     1                 $t.32
c0df6aad c0df6aad       28     1                 bundleNavStartSettingsAtPage
c0df6acc c0df6acc        0     1                 $d.33
c0df6ad4 c0df6ad4       34     4         build/flex/obj/sdk/lib_nbgl/src/nbgl_use_case.o:(.text.bundleNavStartHome)
c0df6ad4 c0df6ad4        0     1                 $t.34
c0df6ad5 c0df6ad5       34     1                 bundleNavStartHome
c0df6b00 c0df6b00        0     1                 $d.35
c0df6b08 c0df6b08       94     4         build/flex/obj/sdk/lib_nbgl/src/nbgl_use_case.o:(.text.nbgl_useCaseStatus)
c0df6b08 c0df6b08        0     1                 $t.36
c0df6b09 c0df6b09       94     1                 nbgl_useCaseStatus
c0df6b84 c0df6b84        0     1                 $d.37
c0df6b9c c0df6b9c       20     4         build/flex/obj/sdk/lib_nbgl/src/nbgl_use_case.o:(.text.tickerCallback)
c0df6b9c c0df6b9c        0     1                 $t.38
c0df6b9d c0df6b9d       20     1                 tickerCallback
c0df6bb8 c0df6bb8        0     1                 $d.39
c0df6bbc c0df6bbc      3ac     4         build/flex/obj/sdk/lib_nbgl/src/nbgl_use_case.o:(.text.pageCallback)
c0df6bbc c0df6bbc        0     1                 $t.40
c0df6bbd c0df6bbd      3ac     1                 pageCallback
c0df6f44 c0df6f44        0     1                 $d.41
c0df6f68 c0df6f68       94     4         build/flex/obj/sdk/lib_nbgl/src/nbgl_use_case.o:(.text.nbgl_useCaseReviewStatus)
c0df6f68 c0df6f68        0     1                 $t.42
c0df6f69 c0df6f69       94     1                 nbgl_useCaseReviewStatus
c0df6fdc c0df6fdc        0     1                 $d.43
c0df6ffc c0df6ffc       74     4         build/flex/obj/sdk/lib_nbgl/src/nbgl_use_case.o:(.text.nbgl_useCaseChoice)
c0df6ffc c0df6ffc        0     1                 $t.44
c0df6ffd c0df6ffd       74     1                 nbgl_useCaseChoice
c0df7068 c0df7068        0     1                 $d.45
c0df7070 c0df7070      11c     4         build/flex/obj/sdk/lib_nbgl/src/nbgl_use_case.o:(.text.layoutTouchCallback)
c0df7070 c0df7070        0     1                 $t.48
c0df7071 c0df7071      11c     1                 layoutTouchCallback
c0df7184 c0df7184        0     1                 $d.49
c0df718c c0df718c       54     4         build/flex/obj/sdk/lib_nbgl/src/nbgl_use_case.o:(.text.nbgl_useCaseConfirm)
c0df718c c0df718c        0     1                 $t.50
c0df718d c0df718d       54     1                 nbgl_useCaseConfirm
c0df71d0 c0df71d0        0     1                 $d.51
c0df71e0 c0df71e0       e0     4         build/flex/obj/sdk/lib_nbgl/src/nbgl_use_case.o:(.text.pageModalCallback)
c0df71e0 c0df71e0        0     1                 $t.52
c0df71e1 c0df71e1       e0     1                 pageModalCallback
c0df72b8 c0df72b8        0     1                 $d.53
c0df72c0 c0df72c0       bc     4         build/flex/obj/sdk/lib_nbgl/src/nbgl_use_case.o:(.text.displayReviewPage)
c0df72c0 c0df72c0        0     1                 $t.60
c0df72c1 c0df72c1       bc     1                 displayReviewPage
c0df7374 c0df7374        0     1                 $d.61
c0df737c c0df737c       26     2         build/flex/obj/sdk/lib_nbgl/src/nbgl_use_case.o:(.text.nbgl_useCaseReview)
c0df737c c0df737c        0     1                 $t.66
c0df737d c0df737d       26     1                 nbgl_useCaseReview
c0df73a4 c0df73a4      138     4         build/flex/obj/sdk/lib_nbgl/src/nbgl_use_case.o:(.text.useCaseReview)
c0df73a4 c0df73a4        0     1                 $t.67
c0df73a5 c0df73a5      138     1                 useCaseReview
c0df74b0 c0df74b0        0     1                 $d.68
c0df74dc c0df74dc       d4     4         build/flex/obj/sdk/lib_nbgl/src/nbgl_use_case.o:(.text.nbgl_useCaseAdvancedReview)
c0df74dc c0df74dc        0     1                 $t.71
c0df74dd c0df74dd       d4     1                 nbgl_useCaseAdvancedReview
c0df75ac c0df75ac        0     1                 $d.72
c0df75b0 c0df75b0       b8     4         build/flex/obj/sdk/lib_nbgl/src/nbgl_use_case.o:(.text.displayPrelude)
c0df75b0 c0df75b0        0     1                 $t.73
c0df75b1 c0df75b1       b8     1                 displayPrelude
c0df765c c0df765c        0     1                 $d.74
c0df7668 c0df7668      1d0     4         build/flex/obj/sdk/lib_nbgl/src/nbgl_use_case.o:(.text.displayInitialWarning)
c0df7668 c0df7668        0     1                 $t.75
c0df7669 c0df7669      1d0     1                 displayInitialWarning
c0df77e8 c0df77e8        0     1                 $d.76
c0df7838 c0df7838       c0     4         build/flex/obj/sdk/lib_nbgl/src/nbgl_use_case.o:(.text.useCaseReviewStreamingStart)
c0df7838 c0df7838        0     1                 $t.81
c0df7839 c0df7839       c0     1                 useCaseReviewStreamingStart
c0df78dc c0df78dc        0     1                 $d.82
c0df78f8 c0df78f8       20     4         build/flex/obj/sdk/lib_nbgl/src/nbgl_use_case.o:(.text.bundleNavReviewStreamingChoice)
c0df78f8 c0df78f8        0     1                 $t.89
c0df78f9 c0df78f9       20     1                 bundleNavReviewStreamingChoice
c0df7910 c0df7910        0     1                 $d.90
c0df7918 c0df7918       40     4         build/flex/obj/sdk/lib_nbgl/src/nbgl_use_case.o:(.text.prepareReviewLastPage)
c0df7918 c0df7918        0     1                 $t.94
c0df7919 c0df7919       40     1                 prepareReviewLastPage
c0df7948 c0df7948        0     1                 $d.95
c0df7958 c0df7958      168     4         build/flex/obj/sdk/lib_nbgl/src/nbgl_use_case.o:(.text.prepareAddressConfirmationPages)
c0df7958 c0df7958        0     1                 $t.98
c0df7959 c0df7959      168     1                 prepareAddressConfirmationPages
c0df7aa8 c0df7aa8        0     1                 $d.99
c0df7ac0 c0df7ac0       d4     4         build/flex/obj/sdk/lib_nbgl/src/nbgl_use_case.o:(.text.nbgl_useCaseAddressReview)
c0df7ac0 c0df7ac0        0     1                 $t.100
c0df7ac1 c0df7ac1       d4     1                 nbgl_useCaseAddressReview
c0df7b7c c0df7b7c        0     1                 $d.101
c0df7b94 c0df7b94       88     4         build/flex/obj/sdk/lib_nbgl/src/nbgl_use_case.o:(.text.nbgl_useCaseSpinner)
c0df7b94 c0df7b94        0     1                 $t.102
c0df7b95 c0df7b95       88     1                 nbgl_useCaseSpinner
c0df7c18 c0df7c18        0     1                 $d.103
c0df7c1c c0df7c1c       54     4         build/flex/obj/sdk/lib_nbgl/src/nbgl_use_case.o:(.text.getContentAtIdx)
c0df7c1c c0df7c1c        0     1                 $t.104
c0df7c1d c0df7c1d       54     1                 getContentAtIdx
c0df7c6c c0df7c6c        0     1                 $d.105
c0df7c70 c0df7c70       2e     2         build/flex/obj/sdk/lib_nbgl/src/nbgl_use_case.o:(.text.getContentNbElement)
c0df7c70 c0df7c70        0     1                 $t.106
c0df7c71 c0df7c71       2e     1                 getContentNbElement
c0df7ca0 c0df7ca0      124     4         build/flex/obj/sdk/lib_nbgl/src/nbgl_use_case.o:(.text.genericContextComputeNextPageParams)
c0df7ca0 c0df7ca0        0     1                 $t.107
c0df7ca1 c0df7ca1      124     1                 genericContextComputeNextPageParams
c0df7db4 c0df7db4        0     1                 $d.108
c0df7dc4 c0df7dc4       28     4         build/flex/obj/sdk/lib_nbgl/src/nbgl_use_case.o:(.text.genericContextGetPageInfo)
c0df7dc4 c0df7dc4        0     1                 $t.109
c0df7dc5 c0df7dc5       28     1                 genericContextGetPageInfo
c0df7de8 c0df7de8        0     1                 $d.110
c0df7dec c0df7dec        6     2         build/flex/obj/sdk/lib_nbgl/src/nbgl_use_case.o:(.text.bundleNavStartSettings)
c0df7dec c0df7dec        0     1                 $t.111
c0df7ded c0df7ded        6     1                 bundleNavStartSettings
c0df7df4 c0df7df4      1bc     4         build/flex/obj/sdk/lib_nbgl/src/nbgl_use_case.o:(.text.displayFullValuePage)
c0df7df4 c0df7df4        0     1                 $t.112
c0df7df5 c0df7df5      1bc     1                 displayFullValuePage
c0df7f9c c0df7f9c        0     1                 $d.113
c0df7fb0 c0df7fb0      220     4         build/flex/obj/sdk/lib_nbgl/src/nbgl_use_case.o:(.text.displaySecurityReport)
c0df7fb0 c0df7fb0        0     1                 $t.114
c0df7fb1 c0df7fb1      220     1                 displaySecurityReport
c0df8190 c0df8190        0     1                 $d.115
c0df81d0 c0df81d0       18     4         build/flex/obj/sdk/lib_nbgl/src/nbgl_use_case.o:(.text.displayCustomizedSecurityReport)
c0df81d0 c0df81d0        0     1                 $t.116
c0df81d1 c0df81d1       18     1                 displayCustomizedSecurityReport
c0df81e4 c0df81e4        0     1                 $d.117
c0df81e8 c0df81e8       84     4         build/flex/obj/sdk/lib_nbgl/src/nbgl_use_case.o:(.text.displayInfosListModal)
c0df81e8 c0df81e8        0     1                 $t.118
c0df81e9 c0df81e9       84     1                 displayInfosListModal
c0df825c c0df825c        0     1                 $d.119
c0df826c c0df826c      150     4         build/flex/obj/sdk/lib_nbgl/src/nbgl_use_case.o:(.text.modalLayoutTouchCallback)
c0df826c c0df826c        0     1                 $t.120
c0df826d c0df826d      150     1                 modalLayoutTouchCallback
c0df83b4 c0df83b4        0     1                 $d.121
c0df83bc c0df83bc       f4     4         build/flex/obj/sdk/lib_nbgl/src/nbgl_use_case.o:(.text.displayModalDetails)
c0df83bc c0df83bc        0     1                 $t.122
c0df83bd c0df83bd       f4     1                 displayModalDetails
c0df84a8 c0df84a8        0     1                 $d.123
c0df84b0 c0df84b0      1a4     4         build/flex/obj/sdk/lib_nbgl/src/nbgl_use_case.o:(.text.displayDetailsPage)
c0df84b0 c0df84b0        0     1                 $t.124
c0df84b1 c0df84b1      1a4     1                 displayDetailsPage
c0df8644 c0df8644        0     1                 $d.125
c0df8654 c0df8654      128     4         build/flex/obj/sdk/lib_nbgl/src/nbgl_use_case.o:(.text.displayTagValueListModalPage)
c0df8654 c0df8654        0     1                 $t.126
c0df8655 c0df8655      128     1                 displayTagValueListModalPage
c0df8768 c0df8768        0     1                 $d.127
c0df877c c0df877c       20     4         build/flex/obj/sdk/lib_nbgl/src/nbgl_use_case.o:(.text.bundleNavReviewChoice)
c0df877c c0df877c        0     1                 $t.128
c0df877d c0df877d       20     1                 bundleNavReviewChoice
c0df8794 c0df8794        0     1                 $d.129
c0df879c c0df879c       bc     4         build/flex/obj/sdk/lib_nbgl/src/nbgl_use_case.o:(.text.initWarningTipBox)
c0df879c c0df879c        0     1                 $t.130
c0df879d c0df879d       bc     1                 initWarningTipBox
c0df882c c0df882c        0     1                 $d.131
c0df8858 c0df8858       54     4         build/flex/obj/sdk/lib_nbgl/src/nbgl_use_case.o:(.text.bundleNavReviewAskRejectionConfirmation)
c0df8858 c0df8858        0     1                 $t.132
c0df8859 c0df8859       54     1                 bundleNavReviewAskRejectionConfirmation
c0df8890 c0df8890        0     1                 $d.133
c0df88ac c0df88ac        c     4         build/flex/obj/sdk/lib_nbgl/src/nbgl_use_case.o:(.text.bundleNavReviewConfirmRejection)
c0df88ac c0df88ac        0     1                 $t.134
c0df88ad c0df88ad        c     1                 bundleNavReviewConfirmRejection
c0df88b4 c0df88b4        0     1                 $d.135
c0df88b8 c0df88b8        c     4         build/flex/obj/sdk/lib_nbgl/src/nbgl_use_case.o:(.text.bundleNavReviewStreamingConfirmRejection)
c0df88b8 c0df88b8        0     1                 $t.136
c0df88b9 c0df88b9        c     1                 bundleNavReviewStreamingConfirmRejection
c0df88c0 c0df88c0        0     1                 $d.137
c0df88c4 c0df88c4        c     2         build/flex/obj/sdk/lib_nbgl/src/nbgl_use_case.o:(.text.OUTLINED_FUNCTION_0)
c0df88c4 c0df88c4        0     1                 $t.138
c0df88c5 c0df88c5        c     1                 OUTLINED_FUNCTION_0
c0df88d0 c0df88d0        a     2         build/flex/obj/sdk/lib_nbgl/src/nbgl_use_case.o:(.text.OUTLINED_FUNCTION_1)
c0df88d0 c0df88d0        0     1                 $t.139
c0df88d1 c0df88d1        a     1                 OUTLINED_FUNCTION_1
c0df88da c0df88da        c     2         build/flex/obj/sdk/lib_nbgl/src/nbgl_use_case.o:(.text.OUTLINED_FUNCTION_2)
c0df88da c0df88da        0     1                 $t.140
c0df88db c0df88db        c     1                 OUTLINED_FUNCTION_2
c0df88e6 c0df88e6        6     2         build/flex/obj/sdk/lib_nbgl/src/nbgl_use_case.o:(.text.OUTLINED_FUNCTION_3)
c0df88e6 c0df88e6        0     1                 $t.141
c0df88e7 c0df88e7        6     1                 OUTLINED_FUNCTION_3
c0df88ec c0df88ec        6     2         build/flex/obj/sdk/lib_nbgl/src/nbgl_use_case.o:(.text.OUTLINED_FUNCTION_4)
c0df88ec c0df88ec        0     1                 $t.142
c0df88ed c0df88ed        6     1                 OUTLINED_FUNCTION_4
c0df88f2 c0df88f2        6     2         build/flex/obj/sdk/lib_nbgl/src/nbgl_use_case.o:(.text.OUTLINED_FUNCTION_5)
c0df88f2 c0df88f2        0     1                 $t.143
c0df88f3 c0df88f3        6     1                 OUTLINED_FUNCTION_5
c0df88f8 c0df88f8        c     2         build/flex/obj/sdk/lib_nbgl/src/nbgl_use_case.o:(.text.OUTLINED_FUNCTION_6)
c0df88f8 c0df88f8        0     1                 $t.144
c0df88f9 c0df88f9        c     1                 OUTLINED_FUNCTION_6
c0df8904 c0df8904        c     2         build/flex/obj/sdk/lib_nbgl/src/nbgl_use_case.o:(.text.OUTLINED_FUNCTION_8)
c0df8904 c0df8904        0     1                 $t.146
c0df8905 c0df8905        c     1                 OUTLINED_FUNCTION_8
c0df8910 c0df8910        a     2         build/flex/obj/sdk/lib_nbgl/src/nbgl_use_case.o:(.text.OUTLINED_FUNCTION_9)
c0df8910 c0df8910        0     1                 $t.147
c0df8911 c0df8911        a     1                 OUTLINED_FUNCTION_9
c0df891a c0df891a        a     2         build/flex/obj/sdk/lib_nbgl/src/nbgl_use_case.o:(.text.OUTLINED_FUNCTION_10)
c0df891a c0df891a        0     1                 $t.148
c0df891b c0df891b        a     1                 OUTLINED_FUNCTION_10
c0df8924 c0df8924        e     2         build/flex/obj/sdk/lib_nbgl/src/nbgl_use_case.o:(.text.OUTLINED_FUNCTION_11)
c0df8924 c0df8924        0     1                 $t.149
c0df8925 c0df8925        e     1                 OUTLINED_FUNCTION_11
c0df8932 c0df8932        8     2         build/flex/obj/sdk/lib_nbgl/src/nbgl_use_case.o:(.text.OUTLINED_FUNCTION_12)
c0df8932 c0df8932        0     1                 $t.150
c0df8933 c0df8933        8     1                 OUTLINED_FUNCTION_12
c0df893a c0df893a        8     2         build/flex/obj/sdk/lib_nbgl/src/nbgl_use_case.o:(.text.OUTLINED_FUNCTION_13)
c0df893a c0df893a        0     1                 $t.151
c0df893b c0df893b        8     1                 OUTLINED_FUNCTION_13
c0df8942 c0df8942        a     2         build/flex/obj/sdk/lib_nbgl/src/nbgl_use_case.o:(.text.OUTLINED_FUNCTION_15)
c0df8942 c0df8942        0     1                 $t.153
c0df8943 c0df8943        a     1                 OUTLINED_FUNCTION_15
c0df894c c0df894c        a     2         build/flex/obj/sdk/lib_nbgl/src/nbgl_use_case.o:(.text.OUTLINED_FUNCTION_16)
c0df894c c0df894c        0     1                 $t.154
c0df894d c0df894d        a     1                 OUTLINED_FUNCTION_16
c0df8956 c0df8956        6     2         build/flex/obj/sdk/lib_nbgl/src/nbgl_use_case.o:(.text.OUTLINED_FUNCTION_17)
c0df8956 c0df8956        0     1                 $t.155
c0df8957 c0df8957        6     1                 OUTLINED_FUNCTION_17
c0df895c c0df895c        a     2         build/flex/obj/sdk/lib_nbgl/src/nbgl_use_case.o:(.text.OUTLINED_FUNCTION_18)
c0df895c c0df895c        0     1                 $t.156
c0df895d c0df895d        a     1                 OUTLINED_FUNCTION_18
c0df8966 c0df8966        a     2         build/flex/obj/sdk/lib_nbgl/src/nbgl_use_case.o:(.text.OUTLINED_FUNCTION_19)
c0df8966 c0df8966        0     1                 $t.157
c0df8967 c0df8967        a     1                 OUTLINED_FUNCTION_19
c0df8970 c0df8970       4e     2         build/flex/obj/sdk/lib_standard_app/bip32.o:(.text.bip32_path_read)
c0df8970 c0df8970        0     1                 $t.0
c0df8971 c0df8971       4e     1                 bip32_path_read
c0df89be c0df89be       26     2         build/flex/obj/sdk/lib_standard_app/buffer.o:(.text.buffer_copy)
c0df89be c0df89be        0     1                 $t.10
c0df89bf c0df89bf       26     1                 buffer_copy
c0df89e4 c0df89e4       70     2         build/flex/obj/sdk/lib_standard_app/crypto_helpers.o:(.text.bip32_derive_with_seed_init_privkey_256)
c0df89e4 c0df89e4        0     1                 $t.0
c0df89e5 c0df89e5       70     1                 bip32_derive_with_seed_init_privkey_256
c0df8a54 c0df8a54       80     2         build/flex/obj/sdk/lib_standard_app/crypto_helpers.o:(.text.os_derive_bip32_with_seed_no_throw)
c0df8a54 c0df8a54        0     1                 $t.1
c0df8a55 c0df8a55       80     1                 os_derive_bip32_with_seed_no_throw
c0df8ad4 c0df8ad4       68     2         build/flex/obj/sdk/lib_standard_app/crypto_helpers.o:(.text.bip32_derive_with_seed_get_pubkey_256)
c0df8ad4 c0df8ad4        0     1                 $t.2
c0df8ad5 c0df8ad5       68     1                 bip32_derive_with_seed_get_pubkey_256
c0df8b3c c0df8b3c       46     2         build/flex/obj/sdk/lib_standard_app/crypto_helpers.o:(.text.bip32_derive_with_seed_ecdsa_sign_rs_hash_256)
c0df8b3c c0df8b3c        0     1                 $t.4
c0df8b3d c0df8b3d       46     1                 bip32_derive_with_seed_ecdsa_sign_rs_hash_256
c0df8b82 c0df8b82        6     2         build/flex/obj/sdk/lib_standard_app/crypto_helpers.o:(.text.OUTLINED_FUNCTION_0)
c0df8b82 c0df8b82        0     1                 $t.6
c0df8b83 c0df8b83        6     1                 OUTLINED_FUNCTION_0
c0df8b88 c0df8b88       50     4         build/flex/obj/sdk/lib_standard_app/format.o:(.text.format_hex)
c0df8b88 c0df8b88        0     1                 $t.5
c0df8b89 c0df8b89       50     1                 format_hex
c0df8bd4 c0df8bd4        0     1                 $d.6
c0df8bd8 c0df8bd8        2     2         build/flex/obj/sdk/lib_standard_app/io.o:(.text.app_ticker_event_callback)
c0df8bd8 c0df8bd8        0     1                 $t.0
c0df8bd9 c0df8bd9        2     1                 app_ticker_event_callback
c0df8bdc c0df8bdc       34     4         build/flex/obj/sdk/lib_standard_app/io.o:(.text.io_event)
c0df8bdc c0df8bdc        0     1                 $t.1
c0df8bdd c0df8bdd       34     1                 io_event
c0df8c0c c0df8c0c        0     1                 $d.2
c0df8c10 c0df8c10       10     4         build/flex/obj/sdk/lib_standard_app/io.o:(.text.io_init)
c0df8c10 c0df8c10        0     1                 $t.3
c0df8c11 c0df8c11       10     1                 io_init
c0df8c1c c0df8c1c        0     1                 $d.4
c0df8c20 c0df8c20       a8     4         build/flex/obj/sdk/lib_standard_app/io.o:(.text.io_send_response_buffers)
c0df8c20 c0df8c20        0     1                 $t.7
c0df8c21 c0df8c21       a8     1                 io_send_response_buffers
c0df8cb8 c0df8cb8        0     1                 $d.8
c0df8cc8 c0df8cc8        a     2         build/flex/obj/sdk/lib_standard_app/io.o:(.text.OUTLINED_FUNCTION_0)
c0df8cc8 c0df8cc8        0     1                 $t.10
c0df8cc9 c0df8cc9        a     1                 OUTLINED_FUNCTION_0
c0df8cd2 c0df8cd2        6     2         build/flex/obj/sdk/lib_standard_app/main.o:(.text.app_exit)
c0df8cd2 c0df8cd2        0     1                 $t.0
c0df8cd3 c0df8cd3        6     1                 app_exit
c0df8cd8 c0df8cd8        e     2         build/flex/obj/sdk/lib_standard_app/main.o:(.text.common_app_init)
c0df8cd8 c0df8cd8        0     1                 $t.1
c0df8cd9 c0df8cd9        e     1                 common_app_init
c0df8ce6 c0df8ce6       36     2         build/flex/obj/sdk/lib_standard_app/parser.o:(.text.apdu_parser)
c0df8ce6 c0df8ce6        0     1                 $t.0
c0df8ce7 c0df8ce7       36     1                 apdu_parser
c0df8d1c c0df8d1c        e     2         build/flex/obj/sdk/lib_standard_app/read.o:(.text.read_u16_be)
c0df8d1c c0df8d1c        0     1                 $t.0
c0df8d1d c0df8d1d        e     1                 read_u16_be
c0df8d2a c0df8d2a       18     2         build/flex/obj/sdk/lib_standard_app/read.o:(.text.read_u32_be)
c0df8d2a c0df8d2a        0     1                 $t.1
c0df8d2b c0df8d2b       18     1                 read_u32_be
c0df8d42 c0df8d42       30     2         build/flex/obj/sdk/lib_standard_app/read.o:(.text.read_u64_be)
c0df8d42 c0df8d42        0     1                 $t.2
c0df8d43 c0df8d43       30     1                 read_u64_be
c0df8d72 c0df8d72        c     2         build/flex/obj/sdk/lib_standard_app/swap_error_code_helpers.o:(.text.send_swap_error_simple)
c0df8d72 c0df8d72        0     1                 $t.0
c0df8d73 c0df8d73        c     1                 send_swap_error_simple
c0df8d80 c0df8d80       64     4         build/flex/obj/sdk/lib_standard_app/swap_error_code_helpers.o:(.text.send_swap_error_with_buffers)
c0df8d80 c0df8d80        0     1                 $t.1
c0df8d81 c0df8d81       64     1                 send_swap_error_with_buffers
c0df8ddc c0df8ddc        0     1                 $d.2
c0df8de4 c0df8de4        a     2         build/flex/obj/sdk/lib_standard_app/write.o:(.text.write_u16_be)
c0df8de4 c0df8de4        0     1                 $t.0
c0df8de5 c0df8de5        a     1                 write_u16_be
c0df8dee c0df8dee       22     2         build/flex/obj/sdk/lib_standard_app/write.o:(.text.write_u64_be)
c0df8dee c0df8dee        0     1                 $t.2
c0df8def c0df8def       22     1                 write_u64_be
c0df8e10 c0df8e10       58     4         build/flex/obj/sdk/lib_ux_nbgl/ux.o:(.text.ux_process_finger_event)
c0df8e10 c0df8e10        0     1                 $t.0
c0df8e11 c0df8e11       58     1                 ux_process_finger_event
c0df8e64 c0df8e64        0     1                 $d.1
c0df8e68 c0df8e68       54     4         build/flex/obj/sdk/lib_ux_nbgl/ux.o:(.text.ux_forward_event)
c0df8e68 c0df8e68        0     1                 $t.2
c0df8e69 c0df8e69       54     1                 ux_forward_event
c0df8eb8 c0df8eb8        0     1                 $d.3
c0df8ebc c0df8ebc       6c     4         build/flex/obj/sdk/lib_ux_nbgl/ux.o:(.text.ux_process_ticker_event)
c0df8ebc c0df8ebc        0     1                 $t.4
c0df8ebd c0df8ebd       6c     1                 ux_process_ticker_event
c0df8f24 c0df8f24        0     1                 $d.5
c0df8f28 c0df8f28        6     2         build/flex/obj/sdk/lib_ux_nbgl/ux.o:(.text.ux_process_default_event)
c0df8f28 c0df8f28        0     1                 $t.6
c0df8f29 c0df8f29        6     1                 ux_process_default_event
c0df8f2e c0df8f2e       4a     2         build/flex/obj/sdk/src/cx_hash_iovec.o:(.text.hash_iovec)
c0df8f2e c0df8f2e        0     1                 $t.1
c0df8f2f c0df8f2f       4a     1                 hash_iovec
c0df8f78 c0df8f78       16     2         build/flex/obj/sdk/src/cx_hash_iovec.o:(.text.cx_sha256_hash_iovec)
c0df8f78 c0df8f78        0     1                 $t.3
c0df8f79 c0df8f79       16     1                 cx_sha256_hash_iovec
c0df8f8e c0df8f8e       4e     2         build/flex/obj/sdk/src/cx_hash_iovec.o:(.text.hash_iovec_ex)
c0df8f8e c0df8f8e        0     1                 $t.7
c0df8f8f c0df8f8f       4e     1                 hash_iovec_ex
c0df8fdc c0df8fdc       1a     2         build/flex/obj/sdk/src/cx_hash_iovec.o:(.text.cx_keccak_256_hash_iovec)
c0df8fdc c0df8fdc        0     1                 $t.12
c0df8fdd c0df8fdd       1a     1                 cx_keccak_256_hash_iovec
c0df8ff6 c0df8ff6        8     2         build/flex/obj/sdk/src/cx_hash_iovec.o:(.text.OUTLINED_FUNCTION_0)
c0df8ff6 c0df8ff6        0     1                 $t.19
c0df8ff7 c0df8ff7        8     1                 OUTLINED_FUNCTION_0
c0df8ffe c0df8ffe        a     1         build/flex/obj/sdk/src/cx_stubs.o:(.text.cx_crc32_update)
c0df8ffe c0df8ffe        0     1                 $t.41
c0df8fff c0df8fff        0     1                 cx_crc32_update
c0df9008 c0df9008        a     1         build/flex/obj/sdk/src/cx_stubs.o:(.text.cx_ecdsa_sign_no_throw)
c0df9008 c0df9008        0     1                 $t.44
c0df9009 c0df9009        0     1                 cx_ecdsa_sign_no_throw
c0df9012 c0df9012        a     1         build/flex/obj/sdk/src/cx_stubs.o:(.text.cx_ecdsa_verify_no_throw)
c0df9012 c0df9012        0     1                 $t.45
c0df9013 c0df9013        0     1                 cx_ecdsa_verify_no_throw
c0df901c c0df901c        a     1         build/flex/obj/sdk/src/cx_stubs.o:(.text.cx_ecfp_decode_sig_der)
c0df901c c0df901c        0     1                 $t.47
c0df901d c0df901d        0     1                 cx_ecfp_decode_sig_der
c0df9026 c0df9026        a     1         build/flex/obj/sdk/src/cx_stubs.o:(.text.cx_ecfp_generate_pair2_no_throw)
c0df9026 c0df9026        0     1                 $t.49
c0df9027 c0df9027        0     1                 cx_ecfp_generate_pair2_no_throw
c0df9030 c0df9030        a     1         build/flex/obj/sdk/src/cx_stubs.o:(.text.cx_ecfp_generate_pair_no_throw)
c0df9030 c0df9030        0     1                 $t.50
c0df9031 c0df9031        0     1                 cx_ecfp_generate_pair_no_throw
c0df903a c0df903a        a     1         build/flex/obj/sdk/src/cx_stubs.o:(.text.cx_ecfp_init_private_key_no_throw)
c0df903a c0df903a        0     1                 $t.51
c0df903b c0df903b        0     1                 cx_ecfp_init_private_key_no_throw
c0df9044 c0df9044        a     1         build/flex/obj/sdk/src/cx_stubs.o:(.text.cx_ecfp_init_public_key_no_throw)
c0df9044 c0df9044        0     1                 $t.52
c0df9045 c0df9045        0     1                 cx_ecfp_init_public_key_no_throw
c0df904e c0df904e        a     1         build/flex/obj/sdk/src/cx_stubs.o:(.text.cx_hash_final)
c0df904e c0df904e        0     1                 $t.63
c0df904f c0df904f        0     1                 cx_hash_final
c0df9058 c0df9058        a     1         build/flex/obj/sdk/src/cx_stubs.o:(.text.cx_hash_init)
c0df9058 c0df9058        0     1                 $t.66
c0df9059 c0df9059        0     1                 cx_hash_init
c0df9062 c0df9062        a     1         build/flex/obj/sdk/src/cx_stubs.o:(.text.cx_hash_init_ex)
c0df9062 c0df9062        0     1                 $t.67
c0df9063 c0df9063        0     1                 cx_hash_init_ex
c0df906c c0df906c        a     1         build/flex/obj/sdk/src/cx_stubs.o:(.text.cx_hash_no_throw)
c0df906c c0df906c        0     1                 $t.68
c0df906d c0df906d        0     1                 cx_hash_no_throw
c0df9076 c0df9076        a     1         build/flex/obj/sdk/src/cx_stubs.o:(.text.cx_hash_sha256)
c0df9076 c0df9076        0     1                 $t.70
c0df9077 c0df9077        0     1                 cx_hash_sha256
c0df9080 c0df9080        a     1         build/flex/obj/sdk/src/cx_stubs.o:(.text.cx_hash_update)
c0df9080 c0df9080        0     1                 $t.72
c0df9081 c0df9081        0     1                 cx_hash_update
c0df908a c0df908a        a     1         build/flex/obj/sdk/src/cx_stubs.o:(.text.cx_keccak_init_no_throw)
c0df908a c0df908a        0     1                 $t.86
c0df908b c0df908b        0     1                 cx_keccak_init_no_throw
c0df9094 c0df9094        a     1         build/flex/obj/sdk/src/cx_stubs.o:(.text.cx_math_cmp_no_throw)
c0df9094 c0df9094        0     1                 $t.89
c0df9095 c0df9095        0     1                 cx_math_cmp_no_throw
c0df909e c0df909e        a     1         build/flex/obj/sdk/src/cx_stubs.o:(.text.cx_math_mult_no_throw)
c0df909e c0df909e        0     1                 $t.95
c0df909f c0df909f        0     1                 cx_math_mult_no_throw
c0df90a8 c0df90a8        a     1         build/flex/obj/sdk/src/cx_stubs.o:(.text.cx_rng_no_throw)
c0df90a8 c0df90a8        0     1                 $t.106
c0df90a9 c0df90a9        0     1                 cx_rng_no_throw
c0df90b2 c0df90b2        a     1         build/flex/obj/sdk/src/cx_stubs.o:(.text.cx_sha224_init_no_throw)
c0df90b2 c0df90b2        0     1                 $t.111
c0df90b3 c0df90b3        0     1                 cx_sha224_init_no_throw
c0df90bc c0df90bc        a     1         build/flex/obj/sdk/src/cx_stubs.o:(.text.cx_sha256_final)
c0df90bc c0df90bc        0     1                 $t.112
c0df90bd c0df90bd        0     1                 cx_sha256_final
c0df90c6 c0df90c6        a     1         build/flex/obj/sdk/src/cx_stubs.o:(.text.cx_sha256_init_no_throw)
c0df90c6 c0df90c6        0     1                 $t.113
c0df90c7 c0df90c7        0     1                 cx_sha256_init_no_throw
c0df90d0 c0df90d0        a     1         build/flex/obj/sdk/src/cx_stubs.o:(.text.cx_sha256_update)
c0df90d0 c0df90d0        0     1                 $t.114
c0df90d1 c0df90d1        0     1                 cx_sha256_update
c0df90da c0df90da        a     1         build/flex/obj/sdk/src/cx_stubs.o:(.text.cx_sha3_init_no_throw)
c0df90da c0df90da        0     1                 $t.118
c0df90db c0df90db        0     1                 cx_sha3_init_no_throw
c0df90e4 c0df90e4        a     1         build/flex/obj/sdk/src/cx_stubs.o:(.text.cx_x25519)
c0df90e4 c0df90e4        0     1                 $t.130
c0df90e5 c0df90e5        0     1                 cx_x25519
c0df90f0 c0df90f0       10     4         build/flex/obj/sdk/src/cx_stubs.o:(.text.cx_aes_siv_reset)
c0df90f0 c0df90f0        0     1                 $t.144
c0df90f1 c0df90f1        0     1                 cx_aes_siv_reset
c0df90f9 c0df90f9        0     1                 cx_trampoline_helper
c0df90fc c0df90fc        0     1                 $d.145
c0df9100 c0df9100       9e     2         build/flex/obj/sdk/src/cx_wrappers.o:(.text.cx_ecdsa_sign_rs_no_throw)
c0df9100 c0df9100        0     1                 $t.0
c0df9101 c0df9101       9e     1                 cx_ecdsa_sign_rs_no_throw
c0df919e c0df919e        6     2         build/flex/obj/sdk/src/ledger_assert.o:(.text.assert_exit)
c0df919e c0df919e        0     1                 $t.0
c0df919f c0df919f        6     1                 assert_exit
c0df91a4 c0df91a4        a     1         build/flex/obj/sdk/src/nbgl_stubs.o:(.text.nbgl_refresh)
c0df91a4 c0df91a4        0     1                 $t.0
c0df91a5 c0df91a5        0     1                 nbgl_refresh
c0df91ae c0df91ae        a     1         build/flex/obj/sdk/src/nbgl_stubs.o:(.text.nbgl_refreshSpecial)
c0df91ae c0df91ae        0     1                 $t.1
c0df91af c0df91af        0     1                 nbgl_refreshSpecial
c0df91b8 c0df91b8        a     1         build/flex/obj/sdk/src/nbgl_stubs.o:(.text.nbgl_refreshSpecialWithPostRefresh)
c0df91b8 c0df91b8        0     1                 $t.2
c0df91b9 c0df91b9        0     1                 nbgl_refreshSpecialWithPostRefresh
c0df91c2 c0df91c2        a     1         build/flex/obj/sdk/src/nbgl_stubs.o:(.text.nbgl_objInit)
c0df91c2 c0df91c2        0     1                 $t.5
c0df91c3 c0df91c3        0     1                 nbgl_objInit
c0df91cc c0df91cc        a     1         build/flex/obj/sdk/src/nbgl_stubs.o:(.text.nbgl_objDraw)
c0df91cc c0df91cc        0     1                 $t.6
c0df91cd c0df91cd        0     1                 nbgl_objDraw
c0df91d6 c0df91d6        a     1         build/flex/obj/sdk/src/nbgl_stubs.o:(.text.nbgl_objAllowDrawing)
c0df91d6 c0df91d6        0     1                 $t.7
c0df91d7 c0df91d7        0     1                 nbgl_objAllowDrawing
c0df91e0 c0df91e0        a     1         build/flex/obj/sdk/src/nbgl_stubs.o:(.text.nbgl_screenSet)
c0df91e0 c0df91e0        0     1                 $t.10
c0df91e1 c0df91e1        0     1                 nbgl_screenSet
c0df91ea c0df91ea        a     1         build/flex/obj/sdk/src/nbgl_stubs.o:(.text.nbgl_screenPush)
c0df91ea c0df91ea        0     1                 $t.11
c0df91eb c0df91eb        0     1                 nbgl_screenPush
c0df91f4 c0df91f4        a     1         build/flex/obj/sdk/src/nbgl_stubs.o:(.text.nbgl_screenRedraw)
c0df91f4 c0df91f4        0     1                 $t.12
c0df91f5 c0df91f5        0     1                 nbgl_screenRedraw
c0df91fe c0df91fe        a     1         build/flex/obj/sdk/src/nbgl_stubs.o:(.text.nbgl_screenPop)
c0df91fe c0df91fe        0     1                 $t.13
c0df91ff c0df91ff        0     1                 nbgl_screenPop
c0df9208 c0df9208        a     1         build/flex/obj/sdk/src/nbgl_stubs.o:(.text.nbgl_screenUpdateTicker)
c0df9208 c0df9208        0     1                 $t.19
c0df9209 c0df9209        0     1                 nbgl_screenUpdateTicker
c0df9212 c0df9212        a     1         build/flex/obj/sdk/src/nbgl_stubs.o:(.text.nbgl_screenHandler)
c0df9212 c0df9212        0     1                 $t.22
c0df9213 c0df9213        0     1                 nbgl_screenHandler
c0df921c c0df921c        a     1         build/flex/obj/sdk/src/nbgl_stubs.o:(.text.nbgl_objPoolGet)
c0df921c c0df921c        0     1                 $t.23
c0df921d c0df921d        0     1                 nbgl_objPoolGet
c0df9226 c0df9226        a     1         build/flex/obj/sdk/src/nbgl_stubs.o:(.text.nbgl_containerPoolGet)
c0df9226 c0df9226        0     1                 $t.25
c0df9227 c0df9227        0     1                 nbgl_containerPoolGet
c0df9230 c0df9230        a     1         build/flex/obj/sdk/src/nbgl_stubs.o:(.text.nbgl_getFont)
c0df9230 c0df9230        0     1                 $t.27
c0df9231 c0df9231        0     1                 nbgl_getFont
c0df923a c0df923a        a     1         build/flex/obj/sdk/src/nbgl_stubs.o:(.text.nbgl_getFontHeight)
c0df923a c0df923a        0     1                 $t.28
c0df923b c0df923b        0     1                 nbgl_getFontHeight
c0df9244 c0df9244        a     1         build/flex/obj/sdk/src/nbgl_stubs.o:(.text.nbgl_getFontLineHeight)
c0df9244 c0df9244        0     1                 $t.29
c0df9245 c0df9245        0     1                 nbgl_getFontLineHeight
c0df924e c0df924e        a     1         build/flex/obj/sdk/src/nbgl_stubs.o:(.text.nbgl_getTextHeightInWidth)
c0df924e c0df924e        0     1                 $t.33
c0df924f c0df924f        0     1                 nbgl_getTextHeightInWidth
c0df9258 c0df9258        a     1         build/flex/obj/sdk/src/nbgl_stubs.o:(.text.nbgl_getTextNbLinesInWidth)
c0df9258 c0df9258        0     1                 $t.35
c0df9259 c0df9259        0     1                 nbgl_getTextNbLinesInWidth
c0df9262 c0df9262        a     1         build/flex/obj/sdk/src/nbgl_stubs.o:(.text.nbgl_getTextWidth)
c0df9262 c0df9262        0     1                 $t.37
c0df9263 c0df9263        0     1                 nbgl_getTextWidth
c0df926c c0df926c        a     1         build/flex/obj/sdk/src/nbgl_stubs.o:(.text.nbgl_getTextMaxLenInNbLines)
c0df926c c0df926c        0     1                 $t.38
c0df926d c0df926d        0     1                 nbgl_getTextMaxLenInNbLines
c0df9276 c0df9276        a     1         build/flex/obj/sdk/src/nbgl_stubs.o:(.text.nbgl_textReduceOnNbLines)
c0df9276 c0df9276        0     1                 $t.39
c0df9277 c0df9277        0     1                 nbgl_textReduceOnNbLines
c0df9280 c0df9280        a     1         build/flex/obj/sdk/src/nbgl_stubs.o:(.text.nbgl_touchHandler)
c0df9280 c0df9280        0     1                 $t.42
c0df9281 c0df9281        0     1                 nbgl_touchHandler
c0df928a c0df928a        a     1         build/flex/obj/sdk/src/nbgl_stubs.o:(.text.nbgl_touchGetTouchDuration)
c0df928a c0df928a        0     1                 $t.43
c0df928b c0df928b        0     1                 nbgl_touchGetTouchDuration
c0df9294 c0df9294       10     4         build/flex/obj/sdk/src/nbgl_stubs.o:(.text.pic_init)
c0df9294 c0df9294        0     1                 $t.51
c0df9295 c0df9295        0     1                 pic_init
c0df929d c0df929d        0     1                 nbgl_trampoline_helper
c0df92a0 c0df92a0        0     1                 $d.52
c0df92a4 c0df92a4        6     2         build/flex/obj/sdk/src/os.o:(.text.os_boot)
c0df92a4 c0df92a4        0     1                 $t.0
c0df92a5 c0df92a5        6     1                 os_boot
c0df92aa c0df92aa        c     2         build/flex/obj/sdk/src/os.o:(.text.os_longjmp)
c0df92aa c0df92aa        0     1                 $t.3
c0df92ab c0df92ab        c     1                 os_longjmp
c0df92b8 c0df92b8       2c     4         build/flex/obj/sdk/src/os.o:(.text.bytes_to_lowercase_hex)
c0df92b8 c0df92b8        0     1                 $t.19
c0df92b9 c0df92b9       2c     1                 bytes_to_lowercase_hex
c0df92e0 c0df92e0        0     1                 $d.20
c0df92e4 c0df92e4       18     4         build/flex/obj/sdk/src/os.o:(.text.os_explicit_zero_BSS_segment)
c0df92e4 c0df92e4        0     1                 $t.21
c0df92e5 c0df92e5       18     1                 os_explicit_zero_BSS_segment
c0df92f4 c0df92f4        0     1                 $d.22
c0df92fc c0df92fc       1a     2         build/flex/obj/sdk/src/os.o:(.text.OUTLINED_FUNCTION_0)
c0df92fc c0df92fc        0     1                 $t.23
c0df92fd c0df92fd       1a     1                 OUTLINED_FUNCTION_0
c0df9318 c0df9318      554     4         build/flex/obj/sdk/src/os_printf.o:(.text.snprintf)
c0df9318 c0df9318        0     1                 $t.0
c0df9319 c0df9319      554     1                 snprintf
c0df9810 c0df9810        0     1                 $d.1
c0df9814 c0df9814        0     1                 $t.2
c0df9848 c0df9848        0     1                 $d.3
c0df986c c0df986c       2e     2         build/flex/obj/sdk/src/os_printf.o:(.text.sprintf_output)
c0df986c c0df986c        0     1                 $t.4
c0df986d c0df986d       2e     1                 sprintf_output
c0df989a c0df989a       8e     2         build/flex/obj/sdk/src/os_printf.o:(.text.apply_padding_output)
c0df989a c0df989a        0     1                 $t.5
c0df989b c0df989b       8e     1                 apply_padding_output
c0df9928 c0df9928       12     2         build/flex/obj/sdk/src/os_printf.o:(.text.OUTLINED_FUNCTION_0)
c0df9928 c0df9928        0     1                 $t.6
c0df9929 c0df9929       12     1                 OUTLINED_FUNCTION_0
c0df993a c0df993a        c     2         build/flex/obj/sdk/src/os_printf.o:(.text.OUTLINED_FUNCTION_1)
c0df993a c0df993a        0     1                 $t.7
c0df993b c0df993b        c     1                 OUTLINED_FUNCTION_1
c0df9946 c0df9946        e     2         build/flex/obj/sdk/src/os_printf.o:(.text.OUTLINED_FUNCTION_2)
c0df9946 c0df9946        0     1                 $t.8
c0df9947 c0df9947        e     1                 OUTLINED_FUNCTION_2
c0df9954 c0df9954       3c     4         build/flex/obj/sdk/src/pic.o:(.text.pic)
c0df9954 c0df9954        0     1                 $t.0
c0df9955 c0df9955       2a     1                 pic
c0df9980 c0df9980        0     1                 $d.2
c0df9990 c0df9990       10     4         build/flex/obj/sdk/src/pic.o:(.text.pic_internal)
c0df9990 c0df9990        0     1                 $t.1
c0df9991 c0df9991        c     1                 pic_internal
c0df999c c0df999c        0     1                 $d.3
c0df99a0 c0df99a0        e     4         build/flex/obj/sdk/src/svc_call.o:(.text)
c0df99a0 c0df99a0        0     1                 $t.0
c0df99a1 c0df99a1        0     1                 SVC_Call
c0df99a8 c0df99a8        0     1                 exception
c0df99b0 c0df99b0        4     4         build/flex/obj/sdk/src/svc_cx_call.o:(.text)
c0df99b0 c0df99b0        0     1                 $t.0
c0df99b1 c0df99b1        0     1                 SVC_cx_call
c0df99b4 c0df99b4       14     4         build/flex/obj/sdk/src/syscalls.o:(.text.nbgl_wait_pipeline)
c0df99b4 c0df99b4        0     1                 $t.23
c0df99b5 c0df99b5       14     1                 nbgl_wait_pipeline
c0df99c4 c0df99c4        0     1                 $d.24
c0df99c8 c0df99c8       14     4         build/flex/obj/sdk/src/syscalls.o:(.text.nvm_write)
c0df99c8 c0df99c8        0     1                 $t.25
c0df99c9 c0df99c9       14     1                 nvm_write
c0df99d8 c0df99d8        0     1                 $d.26
c0df99dc c0df99dc       14     4         build/flex/obj/sdk/src/syscalls.o:(.text.cx_ecdomain_parameters_length)
c0df99dc c0df99dc        0     1                 $t.136
c0df99dd c0df99dd       14     1                 cx_ecdomain_parameters_length
c0df99ec c0df99ec        0     1                 $d.137
c0df99f0 c0df99f0       28     4         build/flex/obj/sdk/src/syscalls.o:(.text.os_perso_derive_node_with_seed_key)
c0df99f0 c0df99f0        0     1                 $t.212
c0df99f1 c0df99f1       28     1                 os_perso_derive_node_with_seed_key
c0df9a14 c0df9a14        0     1                 $d.213
c0df9a18 c0df9a18       14     4         build/flex/obj/sdk/src/syscalls.o:(.text.os_perso_derive_eip2333)
c0df9a18 c0df9a18        0     1                 $t.214
c0df9a19 c0df9a19       14     1                 os_perso_derive_eip2333
c0df9a28 c0df9a28        0     1                 $d.215
c0df9a2c c0df9a2c       20     4         build/flex/obj/sdk/src/syscalls.o:(.text.os_pki_load_certificate)
c0df9a2c c0df9a2c        0     1                 $t.218
c0df9a2d c0df9a2d       20     1                 os_pki_load_certificate
c0df9a48 c0df9a48        0     1                 $d.219
c0df9a4c c0df9a4c       1c     4         build/flex/obj/sdk/src/syscalls.o:(.text.os_pki_verify)
c0df9a4c c0df9a4c        0     1                 $t.220
c0df9a4d c0df9a4d       1c     1                 os_pki_verify
c0df9a64 c0df9a64        0     1                 $d.221
c0df9a68 c0df9a68       18     4         build/flex/obj/sdk/src/syscalls.o:(.text.os_pki_get_info)
c0df9a68 c0df9a68        0     1                 $t.222
c0df9a69 c0df9a69       18     1                 os_pki_get_info
c0df9a7c c0df9a7c        0     1                 $d.223
c0df9a80 c0df9a80       12     2         build/flex/obj/sdk/src/syscalls.o:(.text.os_perso_is_pin_set)
c0df9a80 c0df9a80        0     1                 $t.244
c0df9a81 c0df9a81       12     1                 os_perso_is_pin_set
c0df9a92 c0df9a92       12     2         build/flex/obj/sdk/src/syscalls.o:(.text.os_global_pin_is_validated)
c0df9a92 c0df9a92        0     1                 $t.245
c0df9a93 c0df9a93       12     1                 os_global_pin_is_validated
c0df9aa4 c0df9aa4       14     4         build/flex/obj/sdk/src/syscalls.o:(.text.os_ux)
c0df9aa4 c0df9aa4        0     1                 $t.253
c0df9aa5 c0df9aa5       14     1                 os_ux
c0df9ab4 c0df9ab4        0     1                 $d.254
c0df9ab8 c0df9ab8       14     4         build/flex/obj/sdk/src/syscalls.o:(.text.os_lib_call)
c0df9ab8 c0df9ab8        0     1                 $t.259
c0df9ab9 c0df9ab9       14     1                 os_lib_call
c0df9ac8 c0df9ac8        0     1                 $d.260
c0df9acc c0df9acc       10     2         build/flex/obj/sdk/src/syscalls.o:(.text.os_lib_end)
c0df9acc c0df9acc        0     1                 $t.261
c0df9acd c0df9acd       10     1                 os_lib_end
c0df9adc c0df9adc       10     2         build/flex/obj/sdk/src/syscalls.o:(.text.os_flags)
c0df9adc c0df9adc        0     1                 $t.262
c0df9add c0df9add       10     1                 os_flags
c0df9aec c0df9aec       18     4         build/flex/obj/sdk/src/syscalls.o:(.text.os_setting_get)
c0df9aec c0df9aec        0     1                 $t.274
c0df9aed c0df9aed       18     1                 os_setting_get
c0df9b00 c0df9b00        0     1                 $d.275
c0df9b04 c0df9b04       18     4         build/flex/obj/sdk/src/syscalls.o:(.text.os_registry_get_current_app_tag)
c0df9b04 c0df9b04        0     1                 $t.282
c0df9b05 c0df9b05       18     1                 os_registry_get_current_app_tag
c0df9b18 c0df9b18        0     1                 $d.283
c0df9b1c c0df9b1c       14     4         build/flex/obj/sdk/src/syscalls.o:(.text.os_sched_exit)
c0df9b1c c0df9b1c        0     1                 $t.289
c0df9b1d c0df9b1d       14     1                 os_sched_exit
c0df9b2c c0df9b2c        0     1                 $d.290
c0df9b30 c0df9b30       14     4         build/flex/obj/sdk/src/syscalls.o:(.text.os_io_init)
c0df9b30 c0df9b30        0     1                 $t.301
c0df9b31 c0df9b31       14     1                 os_io_init
c0df9b40 c0df9b40        0     1                 $d.302
c0df9b44 c0df9b44       14     4         build/flex/obj/sdk/src/syscalls.o:(.text.os_io_start)
c0df9b44 c0df9b44        0     1                 $t.303
c0df9b45 c0df9b45       14     1                 os_io_start
c0df9b54 c0df9b54        0     1                 $d.304
c0df9b58 c0df9b58       18     4         build/flex/obj/sdk/src/syscalls.o:(.text.os_io_tx_cmd)
c0df9b58 c0df9b58        0     1                 $t.307
c0df9b59 c0df9b59       18     1                 os_io_tx_cmd
c0df9b6c c0df9b6c        0     1                 $d.308
c0df9b70 c0df9b70       18     4         build/flex/obj/sdk/src/syscalls.o:(.text.os_io_rx_evt)
c0df9b70 c0df9b70        0     1                 $t.309
c0df9b71 c0df9b71       18     1                 os_io_rx_evt
c0df9b84 c0df9b84        0     1                 $d.310
c0df9b88 c0df9b88       10     2         build/flex/obj/sdk/src/syscalls.o:(.text.try_context_get)
c0df9b88 c0df9b88        0     1                 $t.315
c0df9b89 c0df9b89       10     1                 try_context_get
c0df9b98 c0df9b98       14     4         build/flex/obj/sdk/src/syscalls.o:(.text.try_context_set)
c0df9b98 c0df9b98        0     1                 $t.316
c0df9b99 c0df9b99       14     1                 try_context_set
c0df9ba8 c0df9ba8        0     1                 $d.317
c0df9bac c0df9bac       18     4         build/flex/obj/sdk/src/syscalls.o:(.text.os_sched_last_status)
c0df9bac c0df9bac        0     1                 $t.318
c0df9bad c0df9bad       18     1                 os_sched_last_status
c0df9bc0 c0df9bc0        0     1                 $d.319
c0df9bc4 c0df9bc4       14     4         build/flex/obj/sdk/src/syscalls.o:(.text.touch_get_last_info)
c0df9bc4 c0df9bc4        0     1                 $t.335
c0df9bc5 c0df9bc5       14     1                 touch_get_last_info
c0df9bd4 c0df9bd4        0     1                 $d.336
c0df9bd8 c0df9bd8        8     2         build/flex/obj/sdk/src/syscalls.o:(.text.OUTLINED_FUNCTION_0)
c0df9bd8 c0df9bd8        0     1                 $t.341
c0df9bd9 c0df9bd9        8     1                 OUTLINED_FUNCTION_0
c0df9be0 c0df9be0       22     4         /opt/nanosplus-secure-sdk/arch/st33k1/lib/libclang_rt.builtins.a(ashldi3.c.o):(.text)
c0df9be0 c0df9be0        0     1                 $t.0
c0df9be1 c0df9be1       22     1                 __ashldi3
c0df9be1 c0df9be1       22     1                 __aeabi_llsl
c0df9c04 c0df9c04       22     4         /opt/nanosplus-secure-sdk/arch/st33k1/lib/libclang_rt.builtins.a(lshrdi3.c.o):(.text)
c0df9c04 c0df9c04        0     1                 $t.0
c0df9c05 c0df9c05       22     1                 __lshrdi3
c0df9c05 c0df9c05       22     1                 __aeabi_llsr
c0df9c28 c0df9c28       14     4         /opt/nanosplus-secure-sdk/arch/st33k1/lib/libclang_rt.builtins.a(aeabi_ldivmod.S.o):(.text)
c0df9c28 c0df9c28        0     1                 $t.0
c0df9c29 c0df9c29       14     1                 __aeabi_ldivmod
c0df9c3c c0df9c3c       5a     4         /opt/nanosplus-secure-sdk/arch/st33k1/lib/libclang_rt.builtins.a(divmoddi4.c.o):(.text)
c0df9c3c c0df9c3c        0     1                 $t.0
c0df9c3d c0df9c3d       5a     1                 __divmoddi4
c0df9c98 c0df9c98      1c6     4         /opt/nanosplus-secure-sdk/arch/st33k1/lib/libclang_rt.builtins.a(udivmoddi4.c.o):(.text)
c0df9c98 c0df9c98        0     1                 $t.0
c0df9c99 c0df9c99      1c6     1                 __udivmoddi4
c0df9e60 c0df9e60        4     4         /opt/nanosplus-secure-sdk/arch/st33k1/lib/libclang_rt.builtins.a(aeabi_memcpy.S.o):(.text)
c0df9e60 c0df9e60        0     1                 $t.0
c0df9e61 c0df9e61        4     1                 __aeabi_memcpy
c0df9e61 c0df9e61        4     1                 __aeabi_memcpy4
c0df9e61 c0df9e61        4     1                 __aeabi_memcpy8
c0df9e64 c0df9e64        4     4         /opt/nanosplus-secure-sdk/arch/st33k1/lib/libclang_rt.builtins.a(aeabi_memmove.S.o):(.text)
c0df9e64 c0df9e64        0     1                 $t.0
c0df9e65 c0df9e65        4     1                 __aeabi_memmove
c0df9e65 c0df9e65        4     1                 __aeabi_memmove4
c0df9e65 c0df9e65        4     1                 __aeabi_memmove8
c0df9e68 c0df9e68       14     4         /opt/nanosplus-secure-sdk/arch/st33k1/lib/libclang_rt.builtins.a(aeabi_memset.S.o):(.text)
c0df9e68 c0df9e68        0     1                 $t.0
c0df9e69 c0df9e69        a     1                 __aeabi_memset
c0df9e69 c0df9e69        a     1                 __aeabi_memset4
c0df9e69 c0df9e69        a     1                 __aeabi_memset8
c0df9e75 c0df9e75        8     1                 __aeabi_memclr
c0df9e75 c0df9e75        8     1                 __aeabi_memclr4
c0df9e75 c0df9e75        8     1                 __aeabi_memclr8
c0df9e7c c0df9e7c       14     4         /opt/nanosplus-secure-sdk/arch/st33k1/lib/libclang_rt.builtins.a(aeabi_uldivmod.S.o):(.text)
c0df9e7c c0df9e7c        0     1                 $t.0
c0df9e7d c0df9e7d       14     1                 __aeabi_uldivmod
c0df9e90 c0df9e90        4     2         /opt/nanosplus-secure-sdk/arch/st33k1/lib/libc.a(lib_a-explicit_bzero.o):(.text.explicit_bzero)
c0df9e90 c0df9e90        0     1                 $t
c0df9e91 c0df9e91        4     1                 explicit_bzero
c0df9e94 c0df9e94        8     2         /opt/nanosplus-secure-sdk/arch/st33k1/lib/libc.a(lib_a-bzero.o):(.text.bzero)
c0df9e94 c0df9e94        0     1                 $t
c0df9e95 c0df9e95        8     1                 bzero
c0df9e9c c0df9e9c      150     4         /opt/nanosplus-secure-sdk/arch/st33k1/lib/libc.a(lib_a-gmtime_r.o):(.text.gmtime_r)
c0df9e9c c0df9e9c        0     1                 $t
c0df9e9d c0df9e9d      150     1                 gmtime_r
c0df9fdc c0df9fdc        0     1                 $d
c0df9fec c0df9fec       20     2         /opt/nanosplus-secure-sdk/arch/st33k1/lib/libc.a(lib_a-memcmp.o):(.text.memcmp)
c0df9fec c0df9fec        0     1                 $t
c0df9fed c0df9fed       20     1                 memcmp
c0dfa00c c0dfa00c       1c     2         /opt/nanosplus-secure-sdk/arch/st33k1/lib/libc.a(lib_a-memcpy-stub.o):(.text.memcpy)
c0dfa00c c0dfa00c        0     1                 $t
c0dfa00d c0dfa00d       1c     1                 memcpy
c0dfa028 c0dfa028       34     2         /opt/nanosplus-secure-sdk/arch/st33k1/lib/libc.a(lib_a-memmove.o):(.text.memmove)
c0dfa028 c0dfa028        0     1                 $t
c0dfa029 c0dfa029       34     1                 memmove
c0dfa05c c0dfa05c       10     2         /opt/nanosplus-secure-sdk/arch/st33k1/lib/libc.a(lib_a-memset.o):(.text.memset)
c0dfa05c c0dfa05c        0     1                 $t
c0dfa05d c0dfa05d       10     1                 memset
c0dfa06c c0dfa06c       1c     4         /opt/nanosplus-secure-sdk/arch/st33k1/lib/libc.a(lib_a-setjmp.o):(.text)
c0dfa06c c0dfa06c        0     1                 $t
c0dfa06d c0dfa06d        c     1                 setjmp
c0dfa079 c0dfa079        e     1                 longjmp
c0dfa088 c0dfa088       14     2         /opt/nanosplus-secure-sdk/arch/st33k1/lib/libc.a(lib_a-strcmp.o):(.text)
c0dfa088 c0dfa088        0     1                 $t
c0dfa089 c0dfa089       14     1                 strcmp
c0dfa09c c0dfa09c       48     2         /opt/nanosplus-secure-sdk/arch/st33k1/lib/libc.a(lib_a-strlcat.o):(.text.strlcat)
c0dfa09c c0dfa09c        0     1                 $t
c0dfa09d c0dfa09d       48     1                 strlcat
c0dfa0e4 c0dfa0e4       2a     2         /opt/nanosplus-secure-sdk/arch/st33k1/lib/libc.a(lib_a-strlcpy.o):(.text.strlcpy)
c0dfa0e4 c0dfa0e4        0     1                 $t
c0dfa0e5 c0dfa0e5       2a     1                 strlcpy
c0dfa10e c0dfa10e       10     2         /opt/nanosplus-secure-sdk/arch/st33k1/lib/libc.a(lib_a-strlen.o):(.text)
c0dfa10e c0dfa10e        0     1                 $t
c0dfa10f c0dfa10f       10     1                 strlen
c0dfa11e c0dfa11e       24     2         /opt/nanosplus-secure-sdk/arch/st33k1/lib/libc.a(lib_a-strncmp.o):(.text.strncmp)
c0dfa11e c0dfa11e        0     1                 $t
c0dfa11f c0dfa11f       24     1                 strncmp
c0dfa142 c0dfa142       18     2         /opt/nanosplus-secure-sdk/arch/st33k1/lib/libc.a(lib_a-strnlen.o):(.text.strnlen)
c0dfa142 c0dfa142        0     1                 $t
c0dfa143 c0dfa143       18     1                 strnlen
c0dfa15a c0dfa15a        0     1         _ecode = .
c0dfa15a c0dfa15a      218     1         build/flex/gen_src/glyphs.o:(.rodata.C_chain_100_64px_bitmap)
c0dfa15a c0dfa15a      218     1                 C_chain_100_64px_bitmap
c0dfa372 c0dfa372        a     1         build/flex/gen_src/glyphs.o:(.rodata.C_chain_100_64px)
c0dfa372 c0dfa372        a     1                 C_chain_100_64px
c0dfa37c c0dfa37c      143     1         build/flex/gen_src/glyphs.o:(.rodata.C_chain_1030_64px_bitmap)
c0dfa37c c0dfa37c      143     1                 C_chain_1030_64px_bitmap
c0dfa4bf c0dfa4bf        a     1         build/flex/gen_src/glyphs.o:(.rodata.C_chain_1030_64px)
c0dfa4bf c0dfa4bf        a     1                 C_chain_1030_64px
c0dfa4c9 c0dfa4c9      22d     1         build/flex/gen_src/glyphs.o:(.rodata.C_chain_10507_64px_bitmap)
c0dfa4c9 c0dfa4c9      22d     1                 C_chain_10507_64px_bitmap
c0dfa6f6 c0dfa6f6        a     1         build/flex/gen_src/glyphs.o:(.rodata.C_chain_10507_64px)
c0dfa6f6 c0dfa6f6        a     1                 C_chain_10507_64px
c0dfa700 c0dfa700      12f     1         build/flex/gen_src/glyphs.o:(.rodata.C_chain_106_64px_bitmap)
c0dfa700 c0dfa700      12f     1                 C_chain_106_64px_bitmap
c0dfa82f c0dfa82f        a     1         build/flex/gen_src/glyphs.o:(.rodata.C_chain_106_64px)
c0dfa82f c0dfa82f        a     1                 C_chain_106_64px
c0dfa839 c0dfa839      271     1         build/flex/gen_src/glyphs.o:(.rodata.C_chain_1088_64px_bitmap)
c0dfa839 c0dfa839      271     1                 C_chain_1088_64px_bitmap
c0dfaaaa c0dfaaaa        a     1         build/flex/gen_src/glyphs.o:(.rodata.C_chain_1088_64px)
c0dfaaaa c0dfaaaa        a     1                 C_chain_1088_64px
c0dfaab4 c0dfaab4      20f     1         build/flex/gen_src/glyphs.o:(.rodata.C_chain_10_64px_bitmap)
c0dfaab4 c0dfaab4      20f     1                 C_chain_10_64px_bitmap
c0dfacc3 c0dfacc3        a     1         build/flex/gen_src/glyphs.o:(.rodata.C_chain_10_64px)
c0dfacc3 c0dfacc3        a     1                 C_chain_10_64px
c0dfaccd c0dfaccd      1be     1         build/flex/gen_src/glyphs.o:(.rodata.C_chain_1116_64px_bitmap)
c0dfaccd c0dfaccd      1be     1                 C_chain_1116_64px_bitmap
c0dfae8b c0dfae8b        a     1         build/flex/gen_src/glyphs.o:(.rodata.C_chain_1116_64px)
c0dfae8b c0dfae8b        a     1                 C_chain_1116_64px
c0dfae95 c0dfae95      129     1         build/flex/gen_src/glyphs.o:(.rodata.C_chain_11297108109_64px_bitmap)
c0dfae95 c0dfae95      129     1                 C_chain_11297108109_64px_bitmap
c0dfafbe c0dfafbe        a     1         build/flex/gen_src/glyphs.o:(.rodata.C_chain_11297108109_64px)
c0dfafbe c0dfafbe        a     1                 C_chain_11297108109_64px
c0dfafc8 c0dfafc8      190     1         build/flex/gen_src/glyphs.o:(.rodata.C_chain_1135_64px_bitmap)
c0dfafc8 c0dfafc8      190     1                 C_chain_1135_64px_bitmap
c0dfb158 c0dfb158        a     1         build/flex/gen_src/glyphs.o:(.rodata.C_chain_1135_64px)
c0dfb158 c0dfb158        a     1                 C_chain_1135_64px
c0dfb162 c0dfb162       db     1         build/flex/gen_src/glyphs.o:(.rodata.C_chain_1284_64px_bitmap)
c0dfb162 c0dfb162       db     1                 C_chain_1284_64px_bitmap
c0dfb23d c0dfb23d        a     1         build/flex/gen_src/glyphs.o:(.rodata.C_chain_1284_64px)
c0dfb23d c0dfb23d        a     1                 C_chain_1284_64px
c0dfb247 c0dfb247      106     1         build/flex/gen_src/glyphs.o:(.rodata.C_chain_1285_64px_bitmap)
c0dfb247 c0dfb247      106     1                 C_chain_1285_64px_bitmap
c0dfb34d c0dfb34d        a     1         build/flex/gen_src/glyphs.o:(.rodata.C_chain_1285_64px)
c0dfb34d c0dfb34d        a     1                 C_chain_1285_64px
c0dfb357 c0dfb357      190     1         build/flex/gen_src/glyphs.o:(.rodata.C_chain_137_64px_bitmap)
c0dfb357 c0dfb357      190     1                 C_chain_137_64px_bitmap
c0dfb4e7 c0dfb4e7        a     1         build/flex/gen_src/glyphs.o:(.rodata.C_chain_137_64px)
c0dfb4e7 c0dfb4e7        a     1                 C_chain_137_64px
c0dfb4f1 c0dfb4f1      262     1         build/flex/gen_src/glyphs.o:(.rodata.C_chain_138_64px_bitmap)
c0dfb4f1 c0dfb4f1      262     1                 C_chain_138_64px_bitmap
c0dfb753 c0dfb753        a     1         build/flex/gen_src/glyphs.o:(.rodata.C_chain_138_64px)
c0dfb753 c0dfb753        a     1                 C_chain_138_64px
c0dfb75d c0dfb75d      29e     1         build/flex/gen_src/glyphs.o:(.rodata.C_chain_146_64px_bitmap)
c0dfb75d c0dfb75d      29e     1                 C_chain_146_64px_bitmap
c0dfb9fb c0dfb9fb        a     1         build/flex/gen_src/glyphs.o:(.rodata.C_chain_146_64px)
c0dfb9fb c0dfb9fb        a     1                 C_chain_146_64px
c0dfba05 c0dfba05       81     1         build/flex/gen_src/glyphs.o:(.rodata.C_chain_14_64px_bitmap)
c0dfba05 c0dfba05       81     1                 C_chain_14_64px_bitmap
c0dfba86 c0dfba86        a     1         build/flex/gen_src/glyphs.o:(.rodata.C_chain_14_64px)
c0dfba86 c0dfba86        a     1                 C_chain_14_64px
c0dfba90 c0dfba90      242     1         build/flex/gen_src/glyphs.o:(.rodata.C_chain_153153_64px_bitmap)
c0dfba90 c0dfba90      242     1                 C_chain_153153_64px_bitmap
c0dfbcd2 c0dfbcd2        a     1         build/flex/gen_src/glyphs.o:(.rodata.C_chain_153153_64px)
c0dfbcd2 c0dfbcd2        a     1                 C_chain_153153_64px
c0dfbcdc c0dfbcdc      245     1         build/flex/gen_src/glyphs.o:(.rodata.C_chain_1666600000_64px_bitmap)
c0dfbcdc c0dfbcdc      245     1                 C_chain_1666600000_64px_bitmap
c0dfbf21 c0dfbf21        a     1         build/flex/gen_src/glyphs.o:(.rodata.C_chain_1666600000_64px)
c0dfbf21 c0dfbf21        a     1                 C_chain_1666600000_64px
c0dfbf2b c0dfbf2b       80     1         build/flex/gen_src/glyphs.o:(.rodata.C_chain_16_64px_bitmap)
c0dfbf2b c0dfbf2b       80     1                 C_chain_16_64px_bitmap
c0dfbfab c0dfbfab        a     1         build/flex/gen_src/glyphs.o:(.rodata.C_chain_16_64px)
c0dfbfab c0dfbfab        a     1                 C_chain_16_64px
c0dfbfb5 c0dfbfb5      2ac     1         build/flex/gen_src/glyphs.o:(.rodata.C_chain_1818_64px_bitmap)
c0dfbfb5 c0dfbfb5      2ac     1                 C_chain_1818_64px_bitmap
c0dfc261 c0dfc261        a     1         build/flex/gen_src/glyphs.o:(.rodata.C_chain_1818_64px)
c0dfc261 c0dfc261        a     1                 C_chain_1818_64px
c0dfc26b c0dfc26b      17c     1         build/flex/gen_src/glyphs.o:(.rodata.C_chain_1868_64px_bitmap)
c0dfc26b c0dfc26b      17c     1                 C_chain_1868_64px_bitmap
c0dfc3e7 c0dfc3e7        a     1         build/flex/gen_src/glyphs.o:(.rodata.C_chain_1868_64px)
c0dfc3e7 c0dfc3e7        a     1                 C_chain_1868_64px
c0dfc3f1 c0dfc3f1      1ea     1         build/flex/gen_src/glyphs.o:(.rodata.C_chain_1907_64px_bitmap)
c0dfc3f1 c0dfc3f1      1ea     1                 C_chain_1907_64px_bitmap
c0dfc5db c0dfc5db        a     1         build/flex/gen_src/glyphs.o:(.rodata.C_chain_1907_64px)
c0dfc5db c0dfc5db        a     1                 C_chain_1907_64px
c0dfc5e5 c0dfc5e5      1fe     1         build/flex/gen_src/glyphs.o:(.rodata.C_chain_1923_64px_bitmap)
c0dfc5e5 c0dfc5e5      1fe     1                 C_chain_1923_64px_bitmap
c0dfc7e3 c0dfc7e3        a     1         build/flex/gen_src/glyphs.o:(.rodata.C_chain_1923_64px)
c0dfc7e3 c0dfc7e3        a     1                 C_chain_1923_64px
c0dfc7ed c0dfc7ed       47     1         build/flex/gen_src/glyphs.o:(.rodata.C_chain_196_64px_bitmap)
c0dfc7ed c0dfc7ed       47     1                 C_chain_196_64px_bitmap
c0dfc834 c0dfc834        a     1         build/flex/gen_src/glyphs.o:(.rodata.C_chain_196_64px)
c0dfc834 c0dfc834        a     1                 C_chain_196_64px
c0dfc83e c0dfc83e      316     1         build/flex/gen_src/glyphs.o:(.rodata.C_chain_199_64px_bitmap)
c0dfc83e c0dfc83e      316     1                 C_chain_199_64px_bitmap
c0dfcb54 c0dfcb54        a     1         build/flex/gen_src/glyphs.o:(.rodata.C_chain_199_64px)
c0dfcb54 c0dfcb54        a     1                 C_chain_199_64px
c0dfcb5e c0dfcb5e       c6     1         build/flex/gen_src/glyphs.o:(.rodata.C_chain_19_64px_bitmap)
c0dfcb5e c0dfcb5e       c6     1                 C_chain_19_64px_bitmap
c0dfcc24 c0dfcc24        a     1         build/flex/gen_src/glyphs.o:(.rodata.C_chain_19_64px)
c0dfcc24 c0dfcc24        a     1                 C_chain_19_64px
c0dfcc2e c0dfcc2e      1c5     1         build/flex/gen_src/glyphs.o:(.rodata.C_chain_1_64px_bitmap)
c0dfcc2e c0dfcc2e      1c5     1                 C_chain_1_64px_bitmap
c0dfcdf3 c0dfcdf3        a     1         build/flex/gen_src/glyphs.o:(.rodata.C_chain_1_64px)
c0dfcdf3 c0dfcdf3        a     1                 C_chain_1_64px
c0dfcdfd c0dfcdfd      1ae     1         build/flex/gen_src/glyphs.o:(.rodata.C_chain_200901_64px_bitmap)
c0dfcdfd c0dfcdfd      1ae     1                 C_chain_200901_64px_bitmap
c0dfcfab c0dfcfab        a     1         build/flex/gen_src/glyphs.o:(.rodata.C_chain_200901_64px)
c0dfcfab c0dfcfab        a     1                 C_chain_200901_64px
c0dfcfb5 c0dfcfb5      13a     1         build/flex/gen_src/glyphs.o:(.rodata.C_chain_20531812_64px_bitmap)
c0dfcfb5 c0dfcfb5      13a     1                 C_chain_20531812_64px_bitmap
c0dfd0ef c0dfd0ef        a     1         build/flex/gen_src/glyphs.o:(.rodata.C_chain_20531812_64px)
c0dfd0ef c0dfd0ef        a     1                 C_chain_20531812_64px
c0dfd0f9 c0dfd0f9      114     1         build/flex/gen_src/glyphs.o:(.rodata.C_chain_2222_64px_bitmap)
c0dfd0f9 c0dfd0f9      114     1                 C_chain_2222_64px_bitmap
c0dfd20d c0dfd20d        a     1         build/flex/gen_src/glyphs.o:(.rodata.C_chain_2222_64px)
c0dfd20d c0dfd20d        a     1                 C_chain_2222_64px
c0dfd217 c0dfd217      1ad     1         build/flex/gen_src/glyphs.o:(.rodata.C_chain_245022934_64px_bitmap)
c0dfd217 c0dfd217      1ad     1                 C_chain_245022934_64px_bitmap
c0dfd3c4 c0dfd3c4        a     1         build/flex/gen_src/glyphs.o:(.rodata.C_chain_245022934_64px)
c0dfd3c4 c0dfd3c4        a     1                 C_chain_245022934_64px
c0dfd3ce c0dfd3ce      227     1         build/flex/gen_src/glyphs.o:(.rodata.C_chain_246_64px_bitmap)
c0dfd3ce c0dfd3ce      227     1                 C_chain_246_64px_bitmap
c0dfd5f5 c0dfd5f5        a     1         build/flex/gen_src/glyphs.o:(.rodata.C_chain_246_64px)
c0dfd5f5 c0dfd5f5        a     1                 C_chain_246_64px
c0dfd5ff c0dfd5ff       ee     1         build/flex/gen_src/glyphs.o:(.rodata.C_chain_248_64px_bitmap)
c0dfd5ff c0dfd5ff       ee     1                 C_chain_248_64px_bitmap
c0dfd6ed c0dfd6ed        a     1         build/flex/gen_src/glyphs.o:(.rodata.C_chain_248_64px)
c0dfd6ed c0dfd6ed        a     1                 C_chain_248_64px
c0dfd6f7 c0dfd6f7       e7     1         build/flex/gen_src/glyphs.o:(.rodata.C_chain_24_64px_bitmap)
c0dfd6f7 c0dfd6f7       e7     1                 C_chain_24_64px_bitmap
c0dfd7de c0dfd7de        a     1         build/flex/gen_src/glyphs.o:(.rodata.C_chain_24_64px)
c0dfd7de c0dfd7de        a     1                 C_chain_24_64px
c0dfd7e8 c0dfd7e8      1ea     1         build/flex/gen_src/glyphs.o:(.rodata.C_chain_250_64px_bitmap)
c0dfd7e8 c0dfd7e8      1ea     1                 C_chain_250_64px_bitmap
c0dfd9d2 c0dfd9d2        a     1         build/flex/gen_src/glyphs.o:(.rodata.C_chain_250_64px)
c0dfd9d2 c0dfd9d2        a     1                 C_chain_250_64px
c0dfd9dc c0dfd9dc      1ce     1         build/flex/gen_src/glyphs.o:(.rodata.C_chain_25_64px_bitmap)
c0dfd9dc c0dfd9dc      1ce     1                 C_chain_25_64px_bitmap
c0dfdbaa c0dfdbaa        a     1         build/flex/gen_src/glyphs.o:(.rodata.C_chain_25_64px)
c0dfdbaa c0dfdbaa        a     1                 C_chain_25_64px
c0dfdbb4 c0dfdbb4      12a     1         build/flex/gen_src/glyphs.o:(.rodata.C_chain_288_64px_bitmap)
c0dfdbb4 c0dfdbb4      12a     1                 C_chain_288_64px_bitmap
c0dfdcde c0dfdcde        a     1         build/flex/gen_src/glyphs.o:(.rodata.C_chain_288_64px)
c0dfdcde c0dfdcde        a     1                 C_chain_288_64px
c0dfdce8 c0dfdce8       a8     1         build/flex/gen_src/glyphs.o:(.rodata.C_chain_30_64px_bitmap)
c0dfdce8 c0dfdce8       a8     1                 C_chain_30_64px_bitmap
c0dfdd90 c0dfdd90        a     1         build/flex/gen_src/glyphs.o:(.rodata.C_chain_30_64px)
c0dfdd90 c0dfdd90        a     1                 C_chain_30_64px
c0dfdd9a c0dfdd9a      29e     1         build/flex/gen_src/glyphs.o:(.rodata.C_chain_321_64px_bitmap)
c0dfdd9a c0dfdd9a      29e     1                 C_chain_321_64px_bitmap
c0dfe038 c0dfe038        a     1         build/flex/gen_src/glyphs.o:(.rodata.C_chain_321_64px)
c0dfe038 c0dfe038        a     1                 C_chain_321_64px
c0dfe042 c0dfe042       fa     1         build/flex/gen_src/glyphs.o:(.rodata.C_chain_324_64px_bitmap)
c0dfe042 c0dfe042       fa     1                 C_chain_324_64px_bitmap
c0dfe13c c0dfe13c        a     1         build/flex/gen_src/glyphs.o:(.rodata.C_chain_324_64px)
c0dfe13c c0dfe13c        a     1                 C_chain_324_64px
c0dfe146 c0dfe146      11c     1         build/flex/gen_src/glyphs.o:(.rodata.C_chain_336_64px_bitmap)
c0dfe146 c0dfe146      11c     1                 C_chain_336_64px_bitmap
c0dfe262 c0dfe262        a     1         build/flex/gen_src/glyphs.o:(.rodata.C_chain_336_64px)
c0dfe262 c0dfe262        a     1                 C_chain_336_64px
c0dfe26c c0dfe26c      1c8     1         build/flex/gen_src/glyphs.o:(.rodata.C_chain_369_64px_bitmap)
c0dfe26c c0dfe26c      1c8     1                 C_chain_369_64px_bitmap
c0dfe434 c0dfe434        a     1         build/flex/gen_src/glyphs.o:(.rodata.C_chain_369_64px)
c0dfe434 c0dfe434        a     1                 C_chain_369_64px
c0dfe43e c0dfe43e      29d     1         build/flex/gen_src/glyphs.o:(.rodata.C_chain_3776_64px_bitmap)
c0dfe43e c0dfe43e      29d     1                 C_chain_3776_64px_bitmap
c0dfe6db c0dfe6db        a     1         build/flex/gen_src/glyphs.o:(.rodata.C_chain_3776_64px)
c0dfe6db c0dfe6db        a     1                 C_chain_3776_64px
c0dfe6e5 c0dfe6e5      122     1         build/flex/gen_src/glyphs.o:(.rodata.C_chain_39797_64px_bitmap)
c0dfe6e5 c0dfe6e5      122     1                 C_chain_39797_64px_bitmap
c0dfe807 c0dfe807        a     1         build/flex/gen_src/glyphs.o:(.rodata.C_chain_39797_64px)
c0dfe807 c0dfe807        a     1                 C_chain_39797_64px
c0dfe811 c0dfe811      291     1         build/flex/gen_src/glyphs.o:(.rodata.C_chain_40_64px_bitmap)
c0dfe811 c0dfe811      291     1                 C_chain_40_64px_bitmap
c0dfeaa2 c0dfeaa2        a     1         build/flex/gen_src/glyphs.o:(.rodata.C_chain_40_64px)
c0dfeaa2 c0dfeaa2        a     1                 C_chain_40_64px
c0dfeaac c0dfeaac      245     1         build/flex/gen_src/glyphs.o:(.rodata.C_chain_42161_64px_bitmap)
c0dfeaac c0dfeaac      245     1                 C_chain_42161_64px_bitmap
c0dfecf1 c0dfecf1        a     1         build/flex/gen_src/glyphs.o:(.rodata.C_chain_42161_64px)
c0dfecf1 c0dfecf1        a     1                 C_chain_42161_64px
c0dfecfb c0dfecfb      2b5     1         build/flex/gen_src/glyphs.o:(.rodata.C_chain_42220_64px_bitmap)
c0dfecfb c0dfecfb      2b5     1                 C_chain_42220_64px_bitmap
c0dfefb0 c0dfefb0        a     1         build/flex/gen_src/glyphs.o:(.rodata.C_chain_42220_64px)
c0dfefb0 c0dfefb0        a     1                 C_chain_42220_64px
c0dfefba c0dfefba      1e9     1         build/flex/gen_src/glyphs.o:(.rodata.C_chain_42793_64px_bitmap)
c0dfefba c0dfefba      1e9     1                 C_chain_42793_64px_bitmap
c0dff1a3 c0dff1a3        a     1         build/flex/gen_src/glyphs.o:(.rodata.C_chain_42793_64px)
c0dff1a3 c0dff1a3        a     1                 C_chain_42793_64px
c0dff1ad c0dff1ad      182     1         build/flex/gen_src/glyphs.o:(.rodata.C_chain_42_64px_bitmap)
c0dff1ad c0dff1ad      182     1                 C_chain_42_64px_bitmap
c0dff32f c0dff32f        a     1         build/flex/gen_src/glyphs.o:(.rodata.C_chain_42_64px)
c0dff32f c0dff32f        a     1                 C_chain_42_64px
c0dff339 c0dff339      1cd     1         build/flex/gen_src/glyphs.o:(.rodata.C_chain_43114_64px_bitmap)
c0dff339 c0dff339      1cd     1                 C_chain_43114_64px_bitmap
c0dff506 c0dff506        a     1         build/flex/gen_src/glyphs.o:(.rodata.C_chain_43114_64px)
c0dff506 c0dff506        a     1                 C_chain_43114_64px
c0dff510 c0dff510      271     1         build/flex/gen_src/glyphs.o:(.rodata.C_chain_4689_64px_bitmap)
c0dff510 c0dff510      271     1                 C_chain_4689_64px_bitmap
c0dff781 c0dff781        a     1         build/flex/gen_src/glyphs.o:(.rodata.C_chain_4689_64px)
c0dff781 c0dff781        a     1                 C_chain_4689_64px
c0dff78b c0dff78b      1cc     1         build/flex/gen_src/glyphs.o:(.rodata.C_chain_47763_64px_bitmap)
c0dff78b c0dff78b      1cc     1                 C_chain_47763_64px_bitmap
c0dff957 c0dff957        a     1         build/flex/gen_src/glyphs.o:(.rodata.C_chain_47763_64px)
c0dff957 c0dff957        a     1                 C_chain_47763_64px
c0dff961 c0dff961      2bc     1         build/flex/gen_src/glyphs.o:(.rodata.C_chain_4919_64px_bitmap)
c0dff961 c0dff961      2bc     1                 C_chain_4919_64px_bitmap
c0dffc1d c0dffc1d        a     1         build/flex/gen_src/glyphs.o:(.rodata.C_chain_4919_64px)
c0dffc1d c0dffc1d        a     1                 C_chain_4919_64px
c0dffc27 c0dffc27      147     1         build/flex/gen_src/glyphs.o:(.rodata.C_chain_5000_64px_bitmap)
c0dffc27 c0dffc27      147     1                 C_chain_5000_64px_bitmap
c0dffd6e c0dffd6e        a     1         build/flex/gen_src/glyphs.o:(.rodata.C_chain_5000_64px)
c0dffd6e c0dffd6e        a     1                 C_chain_5000_64px
c0dffd78 c0dffd78       e5     1         build/flex/gen_src/glyphs.o:(.rodata.C_chain_50_64px_bitmap)
c0dffd78 c0dffd78       e5     1                 C_chain_50_64px_bitmap
c0dffe5d c0dffe5d        a     1         build/flex/gen_src/glyphs.o:(.rodata.C_chain_50_64px)
c0dffe5d c0dffe5d        a     1                 C_chain_50_64px
c0dffe67 c0dffe67      1cb     1         build/flex/gen_src/glyphs.o:(.rodata.C_chain_5165_64px_bitmap)
c0dffe67 c0dffe67      1cb     1                 C_chain_5165_64px_bitmap
c0e00032 c0e00032        a     1         build/flex/gen_src/glyphs.o:(.rodata.C_chain_5165_64px)
c0e00032 c0e00032        a     1                 C_chain_5165_64px
c0e0003c c0e0003c      278     1         build/flex/gen_src/glyphs.o:(.rodata.C_chain_51_64px_bitmap)
c0e0003c c0e0003c      278     1                 C_chain_51_64px_bitmap
c0e002b4 c0e002b4        a     1         build/flex/gen_src/glyphs.o:(.rodata.C_chain_51_64px)
c0e002b4 c0e002b4        a     1                 C_chain_51_64px
c0e002be c0e002be      393     1         build/flex/gen_src/glyphs.o:(.rodata.C_chain_52014_64px_bitmap)
c0e002be c0e002be      393     1                 C_chain_52014_64px_bitmap
c0e00651 c0e00651        a     1         build/flex/gen_src/glyphs.o:(.rodata.C_chain_52014_64px)
c0e00651 c0e00651        a     1                 C_chain_52014_64px
c0e0065b c0e0065b      184     1         build/flex/gen_src/glyphs.o:(.rodata.C_chain_534352_64px_bitmap)
c0e0065b c0e0065b      184     1                 C_chain_534352_64px_bitmap
c0e007df c0e007df        a     1         build/flex/gen_src/glyphs.o:(.rodata.C_chain_534352_64px)
c0e007df c0e007df        a     1                 C_chain_534352_64px
c0e007e9 c0e007e9       d2     1         build/flex/gen_src/glyphs.o:(.rodata.C_chain_543210_64px_bitmap)
c0e007e9 c0e007e9       d2     1                 C_chain_543210_64px_bitmap
c0e008bb c0e008bb        a     1         build/flex/gen_src/glyphs.o:(.rodata.C_chain_543210_64px)
c0e008bb c0e008bb        a     1                 C_chain_543210_64px
c0e008c5 c0e008c5      207     1         build/flex/gen_src/glyphs.o:(.rodata.C_chain_56_64px_bitmap)
c0e008c5 c0e008c5      207     1                 C_chain_56_64px_bitmap
c0e00acc c0e00acc        a     1         build/flex/gen_src/glyphs.o:(.rodata.C_chain_56_64px)
c0e00acc c0e00acc        a     1                 C_chain_56_64px
c0e00ad6 c0e00ad6      24e     1         build/flex/gen_src/glyphs.o:(.rodata.C_chain_57_64px_bitmap)
c0e00ad6 c0e00ad6      24e     1                 C_chain_57_64px_bitmap
c0e00d24 c0e00d24        a     1         build/flex/gen_src/glyphs.o:(.rodata.C_chain_57_64px)
c0e00d24 c0e00d24        a     1                 C_chain_57_64px
c0e00d2e c0e00d2e       b2     1         build/flex/gen_src/glyphs.o:(.rodata.C_chain_59144_64px_bitmap)
c0e00d2e c0e00d2e       b2     1                 C_chain_59144_64px_bitmap
c0e00de0 c0e00de0        a     1         build/flex/gen_src/glyphs.o:(.rodata.C_chain_59144_64px)
c0e00de0 c0e00de0        a     1                 C_chain_59144_64px
c0e00dea c0e00dea      2c6     1         build/flex/gen_src/glyphs.o:(.rodata.C_chain_592_64px_bitmap)
c0e00dea c0e00dea      2c6     1                 C_chain_592_64px_bitmap
c0e010b0 c0e010b0        a     1         build/flex/gen_src/glyphs.o:(.rodata.C_chain_592_64px)
c0e010b0 c0e010b0        a     1                 C_chain_592_64px
c0e010ba c0e010ba       9d     1         build/flex/gen_src/glyphs.o:(.rodata.C_chain_5_64px_bitmap)
c0e010ba c0e010ba       9d     1                 C_chain_5_64px_bitmap
c0e01157 c0e01157        a     1         build/flex/gen_src/glyphs.o:(.rodata.C_chain_5_64px)
c0e01157 c0e01157        a     1                 C_chain_5_64px
c0e01161 c0e01161       71     1         build/flex/gen_src/glyphs.o:(.rodata.C_chain_60808_64px_bitmap)
c0e01161 c0e01161       71     1                 C_chain_60808_64px_bitmap
c0e011d2 c0e011d2        a     1         build/flex/gen_src/glyphs.o:(.rodata.C_chain_60808_64px)
c0e011d2 c0e011d2        a     1                 C_chain_60808_64px
c0e011dc c0e011dc      18b     1         build/flex/gen_src/glyphs.o:(.rodata.C_chain_61_64px_bitmap)
c0e011dc c0e011dc      18b     1                 C_chain_61_64px_bitmap
c0e01367 c0e01367        a     1         build/flex/gen_src/glyphs.o:(.rodata.C_chain_61_64px)
c0e01367 c0e01367        a     1                 C_chain_61_64px
c0e01371 c0e01371       ca     1         build/flex/gen_src/glyphs.o:(.rodata.C_chain_62621_64px_bitmap)
c0e01371 c0e01371       ca     1                 C_chain_62621_64px_bitmap
c0e0143b c0e0143b        a     1         build/flex/gen_src/glyphs.o:(.rodata.C_chain_62621_64px)
c0e0143b c0e0143b        a     1                 C_chain_62621_64px
c0e01445 c0e01445       3c     1         build/flex/gen_src/glyphs.o:(.rodata.C_chain_66_64px_bitmap)
c0e01445 c0e01445       3c     1                 C_chain_66_64px_bitmap
c0e01481 c0e01481        a     1         build/flex/gen_src/glyphs.o:(.rodata.C_chain_66_64px)
c0e01481 c0e01481        a     1                 C_chain_66_64px
c0e0148b c0e0148b       e6     1         build/flex/gen_src/glyphs.o:(.rodata.C_chain_7000_64px_bitmap)
c0e0148b c0e0148b       e6     1                 C_chain_7000_64px_bitmap
c0e01571 c0e01571        a     1         build/flex/gen_src/glyphs.o:(.rodata.C_chain_7000_64px)
c0e01571 c0e01571        a     1                 C_chain_7000_64px
c0e0157b c0e0157b      227     1         build/flex/gen_src/glyphs.o:(.rodata.C_chain_7171_64px_bitmap)
c0e0157b c0e0157b      227     1                 C_chain_7171_64px_bitmap
c0e017a2 c0e017a2        a     1         build/flex/gen_src/glyphs.o:(.rodata.C_chain_7171_64px)
c0e017a2 c0e017a2        a     1                 C_chain_7171_64px
c0e017ac c0e017ac       d7     1         build/flex/gen_src/glyphs.o:(.rodata.C_chain_7341_64px_bitmap)
c0e017ac c0e017ac       d7     1                 C_chain_7341_64px_bitmap
c0e01883 c0e01883        a     1         build/flex/gen_src/glyphs.o:(.rodata.C_chain_7341_64px)
c0e01883 c0e01883        a     1                 C_chain_7341_64px
c0e0188d c0e0188d      10f     1         build/flex/gen_src/glyphs.o:(.rodata.C_chain_73799_64px_bitmap)
c0e0188d c0e0188d      10f     1                 C_chain_73799_64px_bitmap
c0e0199c c0e0199c        a     1         build/flex/gen_src/glyphs.o:(.rodata.C_chain_73799_64px)
c0e0199c c0e0199c        a     1                 C_chain_73799_64px
c0e019a6 c0e019a6      1b4     1         build/flex/gen_src/glyphs.o:(.rodata.C_chain_80094_64px_bitmap)
c0e019a6 c0e019a6      1b4     1                 C_chain_80094_64px_bitmap
c0e01b5a c0e01b5a        a     1         build/flex/gen_src/glyphs.o:(.rodata.C_chain_80094_64px)
c0e01b5a c0e01b5a        a     1                 C_chain_80094_64px
c0e01b64 c0e01b64      12a     1         build/flex/gen_src/glyphs.o:(.rodata.C_chain_81457_64px_bitmap)
c0e01b64 c0e01b64      12a     1                 C_chain_81457_64px_bitmap
c0e01c8e c0e01c8e        a     1         build/flex/gen_src/glyphs.o:(.rodata.C_chain_81457_64px)
c0e01c8e c0e01c8e        a     1                 C_chain_81457_64px
c0e01c98 c0e01c98      155     1         build/flex/gen_src/glyphs.o:(.rodata.C_chain_8217_64px_bitmap)
c0e01c98 c0e01c98      155     1                 C_chain_8217_64px_bitmap
c0e01ded c0e01ded        a     1         build/flex/gen_src/glyphs.o:(.rodata.C_chain_8217_64px)
c0e01ded c0e01ded        a     1                 C_chain_8217_64px
c0e01df7 c0e01df7      109     1         build/flex/gen_src/glyphs.o:(.rodata.C_chain_82_64px_bitmap)
c0e01df7 c0e01df7      109     1                 C_chain_82_64px_bitmap
c0e01f00 c0e01f00        a     1         build/flex/gen_src/glyphs.o:(.rodata.C_chain_82_64px)
c0e01f00 c0e01f00        a     1                 C_chain_82_64px
c0e01f0a c0e01f0a      16d     1         build/flex/gen_src/glyphs.o:(.rodata.C_chain_8453_64px_bitmap)
c0e01f0a c0e01f0a      16d     1                 C_chain_8453_64px_bitmap
c0e02077 c0e02077        a     1         build/flex/gen_src/glyphs.o:(.rodata.C_chain_8453_64px)
c0e02077 c0e02077        a     1                 C_chain_8453_64px
c0e02081 c0e02081       d0     1         build/flex/gen_src/glyphs.o:(.rodata.C_chain_888_64px_bitmap)
c0e02081 c0e02081       d0     1                 C_chain_888_64px_bitmap
c0e02151 c0e02151        a     1         build/flex/gen_src/glyphs.o:(.rodata.C_chain_888_64px)
c0e02151 c0e02151        a     1                 C_chain_888_64px
c0e0215b c0e0215b      1c7     1         build/flex/gen_src/glyphs.o:(.rodata.C_chain_9001_64px_bitmap)
c0e0215b c0e0215b      1c7     1                 C_chain_9001_64px_bitmap
c0e02322 c0e02322        a     1         build/flex/gen_src/glyphs.o:(.rodata.C_chain_9001_64px)
c0e02322 c0e02322        a     1                 C_chain_9001_64px
c0e0232c c0e0232c      14f     1         build/flex/gen_src/glyphs.o:(.rodata.C_chain_994873017_64px_bitmap)
c0e0232c c0e0232c      14f     1                 C_chain_994873017_64px_bitmap
c0e0247b c0e0247b        a     1         build/flex/gen_src/glyphs.o:(.rodata.C_chain_994873017_64px)
c0e0247b c0e0247b        a     1                 C_chain_994873017_64px
c0e02485 c0e02485      17b     1         build/flex/gen_src/glyphs.o:(.rodata.C_chain_999_64px_bitmap)
c0e02485 c0e02485      17b     1                 C_chain_999_64px_bitmap
c0e02600 c0e02600        a     1         build/flex/gen_src/glyphs.o:(.rodata.C_chain_999_64px)
c0e02600 c0e02600        a     1                 C_chain_999_64px
c0e0260a c0e0260a       43     1         build/flex/gen_src/glyphs.o:(.rodata.C_chain_99_64px_bitmap)
c0e0260a c0e0260a       43     1                 C_chain_99_64px_bitmap
c0e0264d c0e0264d        a     1         build/flex/gen_src/glyphs.o:(.rodata.C_chain_99_64px)
c0e0264d c0e0264d        a     1                 C_chain_99_64px
c0e02657 c0e02657      202     1         build/flex/gen_src/glyphs.o:(.rodata.C_multisig_64px_bitmap)
c0e02657 c0e02657      202     1                 C_multisig_64px_bitmap
c0e02859 c0e02859        a     1         build/flex/gen_src/glyphs.o:(.rodata.C_multisig_64px)
c0e02859 c0e02859        a     1                 C_multisig_64px
c0e02863 c0e02863      12c     1         build/flex/gen_src/glyphs.o:(.rodata.C_switch_60_40_bitmap)
c0e02863 c0e02863      12c     1                 C_switch_60_40_bitmap
c0e0298f c0e0298f        a     1         build/flex/gen_src/glyphs.o:(.rodata.C_switch_60_40)
c0e0298f c0e0298f        a     1                 C_switch_60_40
c0e02999 c0e02999      23b     1         build/flex/gen_src/glyphs.o:(.rodata.C_Check_Circle_64px_bitmap)
c0e02999 c0e02999      23b     1                 C_Check_Circle_64px_bitmap
c0e02bd4 c0e02bd4        a     1         build/flex/gen_src/glyphs.o:(.rodata.C_Check_Circle_64px)
c0e02bd4 c0e02bd4        a     1                 C_Check_Circle_64px
c0e02bde c0e02bde      238     1         build/flex/gen_src/glyphs.o:(.rodata.C_Denied_Circle_64px_bitmap)
c0e02bde c0e02bde      238     1                 C_Denied_Circle_64px_bitmap
c0e02e16 c0e02e16        a     1         build/flex/gen_src/glyphs.o:(.rodata.C_Denied_Circle_64px)
c0e02e16 c0e02e16        a     1                 C_Denied_Circle_64px
c0e02e20 c0e02e20      202     1         build/flex/gen_src/glyphs.o:(.rodata.C_Important_Circle_64px_bitmap)
c0e02e20 c0e02e20      202     1                 C_Important_Circle_64px_bitmap
c0e03022 c0e03022        a     1         build/flex/gen_src/glyphs.o:(.rodata.C_Important_Circle_64px)
c0e03022 c0e03022        a     1                 C_Important_Circle_64px
c0e0302c c0e0302c       db     1         build/flex/gen_src/glyphs.o:(.rodata.C_Review_64px_bitmap)
c0e0302c c0e0302c       db     1                 C_Review_64px_bitmap
c0e03107 c0e03107        a     1         build/flex/gen_src/glyphs.o:(.rodata.C_Review_64px)
c0e03107 c0e03107        a     1                 C_Review_64px
c0e03111 c0e03111      167     1         build/flex/gen_src/glyphs.o:(.rodata.C_Warning_64px_bitmap)
c0e03111 c0e03111      167     1                 C_Warning_64px_bitmap
c0e03278 c0e03278        a     1         build/flex/gen_src/glyphs.o:(.rodata.C_Warning_64px)
c0e03278 c0e03278        a     1                 C_Warning_64px
c0e03282 c0e03282       94     1         build/flex/gen_src/glyphs.o:(.rodata.C_Back_40px_bitmap)
c0e03282 c0e03282       94     1                 C_Back_40px_bitmap
c0e03316 c0e03316        a     1         build/flex/gen_src/glyphs.o:(.rodata.C_Back_40px)
c0e03316 c0e03316        a     1                 C_Back_40px
c0e03320 c0e03320       5c     1         build/flex/gen_src/glyphs.o:(.rodata.C_Check_40px_bitmap)
c0e03320 c0e03320       5c     1                 C_Check_40px_bitmap
c0e0337c c0e0337c        a     1         build/flex/gen_src/glyphs.o:(.rodata.C_Check_40px)
c0e0337c c0e0337c        a     1                 C_Check_40px
c0e03386 c0e03386       64     1         build/flex/gen_src/glyphs.o:(.rodata.C_Chevron_40px_bitmap)
c0e03386 c0e03386       64     1                 C_Chevron_40px_bitmap
c0e033ea c0e033ea        a     1         build/flex/gen_src/glyphs.o:(.rodata.C_Chevron_40px)
c0e033ea c0e033ea        a     1                 C_Chevron_40px
c0e033f4 c0e033f4       7e     1         build/flex/gen_src/glyphs.o:(.rodata.C_Chevron_Back_40px_bitmap)
c0e033f4 c0e033f4       7e     1                 C_Chevron_Back_40px_bitmap
c0e03472 c0e03472        a     1         build/flex/gen_src/glyphs.o:(.rodata.C_Chevron_Back_40px)
c0e03472 c0e03472        a     1                 C_Chevron_Back_40px
c0e0347c c0e0347c       79     1         build/flex/gen_src/glyphs.o:(.rodata.C_Chevron_Next_40px_bitmap)
c0e0347c c0e0347c       79     1                 C_Chevron_Next_40px_bitmap
c0e034f5 c0e034f5        a     1         build/flex/gen_src/glyphs.o:(.rodata.C_Chevron_Next_40px)
c0e034f5 c0e034f5        a     1                 C_Chevron_Next_40px
c0e034ff c0e034ff       8d     1         build/flex/gen_src/glyphs.o:(.rodata.C_Close_40px_bitmap)
c0e034ff c0e034ff       8d     1                 C_Close_40px_bitmap
c0e0358c c0e0358c        a     1         build/flex/gen_src/glyphs.o:(.rodata.C_Close_40px)
c0e0358c c0e0358c        a     1                 C_Close_40px
c0e03596 c0e03596       39     1         build/flex/gen_src/glyphs.o:(.rodata.C_Info_40px_bitmap)
c0e03596 c0e03596       39     1                 C_Info_40px_bitmap
c0e035cf c0e035cf        a     1         build/flex/gen_src/glyphs.o:(.rodata.C_Info_40px)
c0e035cf c0e035cf        a     1                 C_Info_40px
c0e035d9 c0e035d9       d6     1         build/flex/gen_src/glyphs.o:(.rodata.C_Mini_Push_40px_bitmap)
c0e035d9 c0e035d9       d6     1                 C_Mini_Push_40px_bitmap
c0e036af c0e036af        a     1         build/flex/gen_src/glyphs.o:(.rodata.C_Mini_Push_40px)
c0e036af c0e036af        a     1                 C_Mini_Push_40px
c0e036b9 c0e036b9      1b4     1         build/flex/gen_src/glyphs.o:(.rodata.C_Privacy_40px_bitmap)
c0e036b9 c0e036b9      1b4     1                 C_Privacy_40px_bitmap
c0e0386d c0e0386d        a     1         build/flex/gen_src/glyphs.o:(.rodata.C_Privacy_40px)
c0e0386d c0e0386d        a     1                 C_Privacy_40px
c0e03877 c0e03877       a1     1         build/flex/gen_src/glyphs.o:(.rodata.C_QRCode_40px_bitmap)
c0e03877 c0e03877       a1     1                 C_QRCode_40px_bitmap
c0e03918 c0e03918        a     1         build/flex/gen_src/glyphs.o:(.rodata.C_QRCode_40px)
c0e03918 c0e03918        a     1                 C_QRCode_40px
c0e03922 c0e03922      175     1         build/flex/gen_src/glyphs.o:(.rodata.C_Question_Mark_Circle_40px_bitmap)
c0e03922 c0e03922      175     1                 C_Question_Mark_Circle_40px_bitmap
c0e03a97 c0e03a97        a     1         build/flex/gen_src/glyphs.o:(.rodata.C_Question_Mark_Circle_40px)
c0e03a97 c0e03a97        a     1                 C_Question_Mark_Circle_40px
c0e03aa1 c0e03aa1      19b     1         build/flex/gen_src/glyphs.o:(.rodata.C_Settings_40px_bitmap)
c0e03aa1 c0e03aa1      19b     1                 C_Settings_40px_bitmap
c0e03c3c c0e03c3c        a     1         build/flex/gen_src/glyphs.o:(.rodata.C_Settings_40px)
c0e03c3c c0e03c3c        a     1                 C_Settings_40px
c0e03c46 c0e03c46       ef     1         build/flex/gen_src/glyphs.o:(.rodata.C_Warning_40px_bitmap)
c0e03c46 c0e03c46       ef     1                 C_Warning_40px_bitmap
c0e03d35 c0e03d35        a     1         build/flex/gen_src/glyphs.o:(.rodata.C_Warning_40px)
c0e03d35 c0e03d35        a     1                 C_Warning_40px
c0e03d40 c0e03d40      520     8         build/flex/gen_src/net_icons.gen.o:(.rodata.g_network_icons)
c0e03d40 c0e03d40      520     1                 g_network_icons
c0e04260 c0e04260     2d4f     1         <internal>:(.text)
c0e06fb0 c0e06fb0       70     4         build/flex/obj/app/src/eth_plugin_handler.o:(.rodata.INTERNAL_ETH_PLUGINS)
c0e06fb0 c0e06fb0       70     1                 INTERNAL_ETH_PLUGINS
c0e07020 c0e07020       b4     4         <internal>:(.text)
c0e070d4 c0e070d4       30     1         build/flex/obj/app/src/features/getEth2PublicKey/cmd_getEth2PublicKey.o:(.rodata.BLS12_381_FIELD_MODULUS)
c0e070d4 c0e070d4       30     1                 BLS12_381_FIELD_MODULUS
c0e07104 c0e07104       41     1         build/flex/obj/app/src/features/provideErc20TokenInformation/cmd_provideTokenInfo.o:(.rodata.LEDGER_SIGNATURE_PUBLIC_KEY)
c0e07104 c0e07104       41     1                 LEDGER_SIGNATURE_PUBLIC_KEY
c0e07145 c0e07145       41     1         build/flex/obj/app/src/features/provideNFTInformation/cmd_provideNFTInfo.o:(.rodata.LEDGER_NFT_METADATA_PUBLIC_KEY)
c0e07145 c0e07145       41     1                 LEDGER_NFT_METADATA_PUBLIC_KEY
c0e07186 c0e07186       41     1         build/flex/obj/app/src/features/setExternalPlugin/cmd_setExternalPlugin.o:(.rodata.LEDGER_SIGNATURE_PUBLIC_KEY)
c0e07186 c0e07186       41     1                 LEDGER_SIGNATURE_PUBLIC_KEY
c0e071c7 c0e071c7       41     1         build/flex/obj/app/src/features/setPlugin/cmd_setPlugin.o:(.rodata.LEDGER_NFT_SELECTOR_PUBLIC_KEY)
c0e071c7 c0e071c7       41     1                 LEDGER_NFT_SELECTOR_PUBLIC_KEY
c0e07208 c0e07208       40     8         build/flex/obj/app/src/features/signAuthorizationEIP7702/whitelist_7702.o:(.rodata.EIP7702_WHITELIST)
c0e07208 c0e07208       40     1                 EIP7702_WHITELIST
c0e07248 c0e07248       1b     1         build/flex/obj/app/src/features/signMessage/cmd_signMessage.o:(.rodata.SIGN_MAGIC)
c0e07248 c0e07248       1b     1                 SIGN_MAGIC
c0e07263 c0e07263       41     1         build/flex/obj/app/src/features/signMessageEIP712/filtering.o:(.rodata.LEDGER_SIGNATURE_PUBLIC_KEY)
c0e07263 c0e07263       41     1                 LEDGER_SIGNATURE_PUBLIC_KEY
c0e072a4 c0e072a4        2     1         build/flex/obj/app/src/features/signMessageEIP712_common/common_712.o:(.rodata.EIP_712_MAGIC)
c0e072a4 c0e072a4        2     1                 EIP_712_MAGIC
c0e072a8 c0e072a8      138     4         build/flex/obj/app/src/lang_es.o:(.rodata.LANG_ES_STRINGS)
c0e072a8 c0e072a8      138     1                 LANG_ES_STRINGS
c0e073e0 c0e073e0      138     4         build/flex/obj/app/src/lang_fr.o:(.rodata.LANG_FR_STRINGS)
c0e073e0 c0e073e0      138     1                 LANG_FR_STRINGS
c0e07518 c0e07518        c     4         build/flex/obj/app/src/nbgl/ui_home.o:(.rodata.infoTypes)
c0e07518 c0e07518        c     1                 infoTypes
c0e07524 c0e07524        c     4         build/flex/obj/app/src/nbgl/ui_home.o:(.rodata.infoContents)
c0e07524 c0e07524        c     1                 infoContents
c0e07530 c0e07530       10     4         build/flex/obj/app/src/nbgl/ui_tx_simulation.o:(.rodata..L__const.ui_tx_simulation_opt_in.buttonsInfo)
c0e07530 c0e07530       10     1                 .L__const.ui_tx_simulation_opt_in.buttonsInfo
c0e07540 c0e07540       14     4         build/flex/obj/app/src/nbgl/ui_tx_simulation.o:(.rodata..L__const.ui_tx_simulation_opt_in.headerDesc)
c0e07540 c0e07540       14     1                 .L__const.ui_tx_simulation_opt_in.headerDesc
c0e07554 c0e07554       14     4         build/flex/obj/app/src/nbgl/ui_tx_simulation.o:(.rodata..L__const.ui_tx_simulation_explain.headerDesc)
c0e07554 c0e07554       14     1                 .L__const.ui_tx_simulation_explain.headerDesc
c0e07568 c0e07568        c     4         build/flex/obj/app/src/nbgl/ui_tx_simulation.o:(.rodata..L__const.ui_tx_simulation_explain.rowTexts)
c0e07568 c0e07568        c     1                 .L__const.ui_tx_simulation_explain.rowTexts
c0e07574 c0e07574        c     4         build/flex/obj/app/src/nbgl/ui_tx_simulation.o:(.rodata..L__const.ui_tx_simulation_explain.rowIcons)
c0e07574 c0e07574        c     1                 .L__const.ui_tx_simulation_explain.rowIcons
c0e07580 c0e07580        4     1         build/flex/obj/app/src/network.o:(.rodata.g_unknown_ticker)
c0e07580 c0e07580        4     1                 g_unknown_ticker
c0e07584 c0e07584       14     1         build/flex/obj/app/src/plugins/eip7002/eip7002_plugin.o:(.rodata.withdrawal_request_predeploy_address)
c0e07584 c0e07584       14     1                 withdrawal_request_predeploy_address
c0e07598 c0e07598        4     4         build/flex/obj/app/src/plugins/eip7002/eip7002_plugin.o:(.rodata.EIP7002_ADDRESSES)
c0e07598 c0e07598        4     1                 EIP7002_ADDRESSES
c0e0759c c0e0759c       14     1         build/flex/obj/app/src/plugins/eip7251/eip7251_plugin.o:(.rodata.consolidation_request_predeploy_address)
c0e0759c c0e0759c       14     1                 consolidation_request_predeploy_address
c0e075b0 c0e075b0        4     4         build/flex/obj/app/src/plugins/eip7251/eip7251_plugin.o:(.rodata.EIP7251_ADDRESSES)
c0e075b0 c0e075b0        4     1                 EIP7251_ADDRESSES
c0e075b4 c0e075b4        c     4         build/flex/obj/app/src/plugins/erc1155/erc1155_plugin.o:(.rodata.ERC1155_SELECTORS)
c0e075b4 c0e075b4        c     1                 ERC1155_SELECTORS
c0e075c0 c0e075c0        4     1         build/flex/obj/app/src/plugins/erc1155/erc1155_plugin.o:(.rodata.ERC1155_APPROVE_FOR_ALL_SELECTOR)
c0e075c0 c0e075c0        4     1                 ERC1155_APPROVE_FOR_ALL_SELECTOR
c0e075c4 c0e075c4        4     1         build/flex/obj/app/src/plugins/erc1155/erc1155_plugin.o:(.rodata.ERC1155_SAFE_TRANSFER_SELECTOR)
c0e075c4 c0e075c4        4     1                 ERC1155_SAFE_TRANSFER_SELECTOR
c0e075c8 c0e075c8        4     1         build/flex/obj/app/src/plugins/erc1155/erc1155_plugin.o:(.rodata.ERC1155_SAFE_BATCH_TRANSFER)
c0e075c8 c0e075c8        4     1                 ERC1155_SAFE_BATCH_TRANSFER
c0e075cc c0e075cc        4     1         build/flex/obj/app/src/plugins/erc20/erc20_plugin.o:(.rodata.ERC20_TRANSFER_SELECTOR)
c0e075cc c0e075cc        4     1                 ERC20_TRANSFER_SELECTOR
c0e075d0 c0e075d0        4     1         build/flex/obj/app/src/plugins/erc20/erc20_plugin.o:(.rodata.ERC20_APPROVE_SELECTOR)
c0e075d0 c0e075d0        4     1                 ERC20_APPROVE_SELECTOR
c0e075d4 c0e075d4        8     4         build/flex/obj/app/src/plugins/erc20/erc20_plugin.o:(.rodata.ERC20_SELECTORS)
c0e075d4 c0e075d4        8     1                 ERC20_SELECTORS
c0e075dc c0e075dc       14     4         build/flex/obj/app/src/plugins/erc721/erc721_plugin.o:(.rodata.ERC721_SELECTORS)
c0e075dc c0e075dc       14     1                 ERC721_SELECTORS
c0e075f0 c0e075f0        4     1         build/flex/obj/app/src/plugins/erc721/erc721_plugin.o:(.rodata.ERC721_APPROVE_SELECTOR)
c0e075f0 c0e075f0        4     1                 ERC721_APPROVE_SELECTOR
c0e075f4 c0e075f4        4     1         build/flex/obj/app/src/plugins/erc721/erc721_plugin.o:(.rodata.ERC721_APPROVE_FOR_ALL_SELECTOR)
c0e075f4 c0e075f4        4     1                 ERC721_APPROVE_FOR_ALL_SELECTOR
c0e075f8 c0e075f8        4     1         build/flex/obj/app/src/plugins/erc721/erc721_plugin.o:(.rodata.ERC721_TRANSFER_SELECTOR)
c0e075f8 c0e075f8        4     1                 ERC721_TRANSFER_SELECTOR
c0e075fc c0e075fc        4     1         build/flex/obj/app/src/plugins/erc721/erc721_plugin.o:(.rodata.ERC721_SAFE_TRANSFER_SELECTOR)
c0e075fc c0e075fc        4     1                 ERC721_SAFE_TRANSFER_SELECTOR
c0e07600 c0e07600        4     1         build/flex/obj/app/src/plugins/erc721/erc721_plugin.o:(.rodata.ERC721_SAFE_TRANSFER_DATA_SELECTOR)
c0e07600 c0e07600        4     1                 ERC721_SAFE_TRANSFER_DATA_SELECTOR
c0e07604 c0e07604        4     1         build/flex/obj/app/src/plugins/eth2/eth2_plugin.o:(.rodata.ETH2_DEPOSIT_SELECTOR)
c0e07604 c0e07604        4     1                 ETH2_DEPOSIT_SELECTOR
c0e07608 c0e07608        4     4         build/flex/obj/app/src/plugins/eth2/eth2_plugin.o:(.rodata.ETH2_SELECTORS)
c0e07608 c0e07608        4     1                 ETH2_SELECTORS
c0e0760c c0e0760c       14     1         build/flex/obj/app/src/plugins/eth2/eth2_plugin.o:(.rodata.deposit_contract_address)
c0e0760c c0e0760c       14     1                 deposit_contract_address
c0e07620 c0e07620        4     4         build/flex/obj/app/src/plugins/eth2/eth2_plugin.o:(.rodata.ETH2_ADDRESSES)
c0e07620 c0e07620        4     1                 ETH2_ADDRESSES
c0e07624 c0e07624        c     4         build/flex/obj/sdk/lib_nbgl/src/nbgl_use_case.o:(.rodata..L__const.nbgl_useCaseStatus.ticker)
c0e07624 c0e07624        c     1                 .L__const.nbgl_useCaseStatus.ticker
c0e07630 c0e07630        b     1         build/flex/obj/sdk/lib_nbgl/src/nbgl_use_case.o:(.rodata.nbMaxElementsPerContentType)
c0e07630 c0e07630        b     1                 nbMaxElementsPerContentType
c0e0763c c0e0763c       14     4         build/flex/obj/sdk/lib_nbgl/src/nbgl_use_case.o:(.rodata..L__const.displayAddressQRCode.headerDesc)
c0e0763c c0e0763c       14     1                 .L__const.displayAddressQRCode.headerDesc
c0e07650 c0e07650       20     4         build/flex/obj/sdk/lib_nbgl/src/nbgl_use_case.o:(.rodata..L__const.displaySkipWarning.info)
c0e07650 c0e07650       20     1                 .L__const.displaySkipWarning.info
c0e07670 c0e07670       1c     4         build/flex/obj/sdk/lib_nbgl/src/nbgl_use_case.o:(.rodata..L__const.displaySecurityReport.layoutDescription)
c0e07670 c0e07670       1c     1                 .L__const.displaySecurityReport.layoutDescription
c0e0768c c0e0768c       14     4         build/flex/obj/sdk/lib_nbgl/src/nbgl_use_case.o:(.rodata..L__const.displaySecurityReport.headerDesc)
c0e0768c c0e0768c       14     1                 .L__const.displaySecurityReport.headerDesc
c0e076a0 c0e076a0       48     4         build/flex/obj/sdk/lib_nbgl/src/nbgl_use_case.o:(.rodata.securityReportItems)
c0e076a0 c0e076a0       48     1                 securityReportItems
c0e076e8 c0e076e8       1c     4         build/flex/obj/sdk/lib_nbgl/src/nbgl_use_case.o:(.rodata..L__const.displayInfosListModal.info)
c0e076e8 c0e076e8       1c     1                 .L__const.displayInfosListModal.info
c0e07704 c0e07704       10     4         build/flex/obj/sdk/lib_nbgl/src/nbgl_use_case.o:(.rodata..L__const.displayInitialWarning.buttonsInfo)
c0e07704 c0e07704       10     1                 .L__const.displayInitialWarning.buttonsInfo
c0e07714 c0e07714       14     4         build/flex/obj/sdk/lib_nbgl/src/nbgl_use_case.o:(.rodata..L__const.displayInitialWarning.headerDesc)
c0e07714 c0e07714       14     1                 .L__const.displayInitialWarning.headerDesc
c0e07728 c0e07728       20     1         <internal>:(.text)
c0e07748 c0e07748      101     1         /opt/nanosplus-secure-sdk/arch/st33k1/lib/libc.a(lib_a-ctype_.o):(.rodata._ctype_)
c0e07748 c0e07748      101     1                 _ctype_
c0e07850 c0e07850     3090     8         build/flex/obj/app/src/network.o:(.rodata.NETWORK_MAPPING)
c0e07850 c0e07850     3090     1                 NETWORK_MAPPING
c0e0a8e0 c0e0a8e0        0     1         . = ALIGN ( 4 )
c0e0a8e0 c0e0a8e0        0     1         _etext = .
c0e0a8e0 c0e0a8e0      120     1         . = ALIGN ( PAGE_SIZE )
c0e0aa00 c0e0aa00        0     1         _nvram_data = .
c0e0aa00 c0e0aa00        9     1         build/flex/obj/app/src/main.o:(.rodata.N_storage_real)
c0e0aa00 c0e0aa00        9     1                 N_storage_real
c0e0aa09 c0e0aa09      1f7     1         . = ALIGN ( PAGE_SIZE )
c0e0ac00 c0e0ac00        0     1         _envram_data = .
c0e0ac00 c0e0ac00        0     1         _install_parameters = .
c0e0ac00 c0e0ac00      13d     1         build/flex/obj/sdk/src/app_metadata.o:(.install_parameters)
c0e0ac00 c0e0ac00      13d     1                 install_parameters
c0e0ad3d c0e0ad3d        0     1         _einstall_parameters = .
c0e0ad3d c0e0ad3d        0     1         _nvram_end = .
d0000000 d0000000        0     1 .data
d0000000 d0000000        0     1         . = ALIGN ( 4 )
d0000000 d0000000        0     1         _data = .
d0000000 d0000000        0     1         _edata = .
d0000000 d0000000        0     1 
da7a0000 da7a0000     5650     8 .bss
da7a0000 da7a0000        0     1         _bss = .
da7a0000 da7a0000        1     1         build/flex/obj/app/src/eth_swap_utils.o:(.bss.G_swap_checked)
da7a0000 da7a0000        1     1                 G_swap_checked
da7a0004 da7a0004        4     4         build/flex/obj/app/src/features/generic_tx_parser/gtp_field_table.o:(.bss.g_table)
da7a0004 da7a0004        4     1                 g_table
da7a0008 da7a0008        8     8         build/flex/obj/app/src/features/generic_tx_parser/gtp_value.o:(.bss.value_get.chain_id)
da7a0008 da7a0008        8     1                 value_get.chain_id
da7a0010 da7a0010        4     4         build/flex/obj/app/src/features/generic_tx_parser/tx_ctx.o:(.bss.g_parked_calldata)
da7a0010 da7a0010        4     1                 g_parked_calldata
da7a0014 da7a0014        8     4         build/flex/obj/app/src/features/generic_tx_parser/tx_ctx.o:(.bss..L_MergedGlobals)
da7a0014 da7a0014        8     1                 .L_MergedGlobals
da7a0014 da7a0014        4     1                 g_tx_ctx_list
da7a0018 da7a0018        4     1                 g_tx_ctx_current
da7a001c da7a001c        4     4         build/flex/obj/app/src/features/getChallenge/cmd_get_challenge.o:(.bss.challenge)
da7a001c da7a001c        4     1                 challenge
da7a0020 da7a0020        4     4         build/flex/obj/app/src/features/provide_enum_value/enum_value.o:(.bss.g_enum_value_list)
da7a0020 da7a0020        4     1                 g_enum_value_list
da7a0024 da7a0024        c     4         build/flex/obj/app/src/features/provide_network_info/cmd_network_info.o:(.bss..L_MergedGlobals)
da7a0024 da7a0024        c     1                 .L_MergedGlobals
da7a0024 da7a0024        4     1                 g_icon_payload
da7a0028 da7a0028        8     1                 g_icon_bitmap
da7a0030 da7a0030        1     1         build/flex/obj/app/src/features/provide_network_info/network_info.o:(.bss.g_current_network_slot)
da7a0030 da7a0030        1     1                 g_current_network_slot
da7a0034 da7a0034        4     4         build/flex/obj/app/src/features/provide_network_info/network_info.o:(.bss.g_network_icon_hash)
da7a0034 da7a0034        4     1                 g_network_icon_hash
da7a0038 da7a0038        8     4         build/flex/obj/app/src/features/provide_network_info/network_info.o:(.bss.DYNAMIC_NETWORK_INFO)
da7a0038 da7a0038        8     1                 DYNAMIC_NETWORK_INFO
da7a0040 da7a0040        4     4         build/flex/obj/app/src/features/provide_proxy_info/proxy_info.o:(.bss.g_proxy_info)
da7a0040 da7a0040        4     1                 g_proxy_info
da7a0044 da7a0044        4     4         build/flex/obj/app/src/features/provide_safe_account/safe_descriptor.o:(.bss.SAFE_DESC)
da7a0044 da7a0044        4     1                 SAFE_DESC
da7a0048 da7a0048        8     4         build/flex/obj/app/src/features/provide_safe_account/signer_descriptor.o:(.bss.SIGNER_DESC)
da7a0048 da7a0048        8     1                 SIGNER_DESC
da7a0050 da7a0050        4     4         build/flex/obj/app/src/features/provide_trusted_name/trusted_name.o:(.bss.g_trusted_name_list)
da7a0050 da7a0050        4     1                 g_trusted_name_list
da7a0058 da7a0058       b0     8         build/flex/obj/app/src/features/provide_tx_simulation/cmd_get_tx_simulation.o:(.bss.TX_SIMULATION)
da7a0058 da7a0058       b0     1                 TX_SIMULATION
da7a0108 da7a0108        4     4         build/flex/obj/app/src/features/signAuthorizationEIP7702/commands_7702.o:(.bss.g_7702_hash_ctx)
da7a0108 da7a0108        4     1                 g_7702_hash_ctx
da7a010c da7a010c        2     2         build/flex/obj/app/src/features/signAuthorizationEIP7702/commands_7702.o:(.bss.g_7702_sw)
da7a010c da7a010c        2     1                 g_7702_sw
da7a0110 da7a0110        4     4         build/flex/obj/app/src/features/signMessage/cmd_signMessage.o:(.bss.g_msg_hash_ctx)
da7a0110 da7a0110        4     1                 g_msg_hash_ctx
da7a0114 da7a0114        4     4         build/flex/obj/app/src/features/signMessage/cmd_signMessage.o:(.bss.signMsgCtx)
da7a0114 da7a0114        4     1                 signMsgCtx
da7a0118 da7a0118        1     1         build/flex/obj/app/src/features/signMessageEIP712/context_712.o:(.bss.struct_state)
da7a0118 da7a0118        1     1                 struct_state
da7a011c da7a011c        4     4         build/flex/obj/app/src/features/signMessageEIP712/context_712.o:(.bss.eip712_context)
da7a011c da7a011c        4     1                 eip712_context
da7a0120 da7a0120        4     4         build/flex/obj/app/src/features/signMessageEIP712/field_hash.o:(.bss.fh)
da7a0120 da7a0120        4     1                 fh
da7a0124 da7a0124        c     4         build/flex/obj/app/src/features/signMessageEIP712/path.o:(.bss..L_MergedGlobals)
da7a0124 da7a0124        c     1                 .L_MergedGlobals
da7a0124 da7a0124        4     1                 path_backup
da7a0128 da7a0128        4     1                 path_struct
da7a012c da7a012c        4     1                 g_hash_ctxs
da7a0130 da7a0130        4     4         build/flex/obj/app/src/features/signMessageEIP712/sol_typenames.o:(.bss.g_sol_types)
da7a0130 da7a0130        4     1                 g_sol_types
da7a0134 da7a0134        4     4         build/flex/obj/app/src/features/signMessageEIP712/typed_data.o:(.bss.g_structs)
da7a0134 da7a0134        4     1                 g_structs
da7a0138 da7a0138        4     4         build/flex/obj/app/src/features/signMessageEIP712/ui_logic.o:(.bss.ui_ctx)
da7a0138 da7a0138        4     1                 ui_ctx
da7a013c da7a013c        4     4         build/flex/obj/app/src/features/signTx/cmd_signTx.o:(.bss.g_tx_hash_ctx)
da7a013c da7a013c        4     1                 g_tx_hash_ctx
da7a0140 da7a0140        4     4         build/flex/obj/app/src/handle_swap_sign_transaction.o:(.bss.G_swap_crosschain_hash)
da7a0140 da7a0140        4     1                 G_swap_crosschain_hash
da7a0144 da7a0144        1     1         build/flex/obj/app/src/handle_swap_sign_transaction.o:(.bss.G_swap_mode)
da7a0144 da7a0144        1     1                 G_swap_mode
da7a0148 da7a0148        4     4         build/flex/obj/app/src/main.o:(.bss.caller_app)
da7a0148 da7a0148        4     1                 caller_app
da7a014c da7a014c        1     1         build/flex/obj/app/src/main.o:(.bss.appState)
da7a014c da7a014c        1     1                 appState
da7a014d da7a014d        1     1         build/flex/obj/app/src/main.o:(.bss.pluginType)
da7a014d da7a014d        1     1                 pluginType
da7a0150 da7a0150        4     4         build/flex/obj/app/src/main.o:(.bss.eth2WithdrawalIndex)
da7a0150 da7a0150        4     1                 eth2WithdrawalIndex
da7a0154 da7a0154      21c     4         build/flex/obj/app/src/main.o:(.bss.tmpCtx)
da7a0154 da7a0154      21c     1                 tmpCtx
da7a0370 da7a0370       40     4         build/flex/obj/app/src/main.o:(.bss.txContext)
da7a0370 da7a0370       40     1                 txContext
da7a03b0 da7a03b0       c4     1         build/flex/obj/app/src/main.o:(.bss.tmpContent)
da7a03b0 da7a03b0       c4     1                 tmpContent
da7a0474 da7a0474        4     4         build/flex/obj/app/src/main.o:(.bss.chainConfig)
da7a0474 da7a0474        4     1                 chainConfig
da7a0478 da7a0478      448     4         build/flex/obj/app/src/main.o:(.bss.dataContext)
da7a0478 da7a0478      448     1                 dataContext
da7a08c0 da7a08c0      17c     1         build/flex/obj/app/src/main.o:(.bss.strings)
da7a08c0 da7a08c0      17c     1                 strings
da7a0a40 da7a0a40      1a8     8         build/flex/obj/app/src/main.o:(.bss.global_sha3)
da7a0a40 da7a0a40      1a8     1                 global_sha3
da7a0be8 da7a0be8        2     2         build/flex/obj/app/src/main.o:(.bss.apdu_response_code)
da7a0be8 da7a0be8        2     1                 apdu_response_code
da7a0bf0 da7a0bf0     4000     8         build/flex/obj/app/src/mem.o:(.bss.mem_buffer)
da7a0bf0 da7a0bf0     4000     1                 mem_buffer
da7a4bf0 da7a4bf0        4     4         build/flex/obj/app/src/mem.o:(.bss.mem_ctx)
da7a4bf0 da7a4bf0        4     1                 mem_ctx
da7a4bf4 da7a4bf4        8     4         build/flex/obj/app/src/nbgl/ui_approve_tx.o:(.bss..L_MergedGlobals)
da7a4bf4 da7a4bf4        8     1                 .L_MergedGlobals
da7a4bf4 da7a4bf4        4     1                 plugin_buffers
da7a4bf8 da7a4bf8        4     1                 extension
da7a4bfc da7a4bfc        4     4         build/flex/obj/app/src/nbgl/ui_gcs.o:(.bss.index_allocated)
da7a4bfc da7a4bfc        4     1                 index_allocated
da7a4c00 da7a4c00       2c     4         build/flex/obj/app/src/nbgl/ui_home.o:(.bss.warning)
da7a4c00 da7a4c00       2c     1                 warning
da7a4c2c da7a4c2c       54     4         build/flex/obj/app/src/nbgl/ui_home.o:(.bss.switches)
da7a4c2c da7a4c2c       54     1                 switches
da7a4c80 da7a4c80       58     4         build/flex/obj/app/src/nbgl/ui_home.o:(.bss..L_MergedGlobals)
da7a4c80 da7a4c80       58     1                 .L_MergedGlobals
da7a4c80 da7a4c80        4     1                 g_tag_line
da7a4c84 da7a4c84        c     1                 settingContents
da7a4c90 da7a4c90       10     1                 infoList
da7a4ca0 da7a4ca0       38     1                 contents
da7a4cd8 da7a4cd8       10     4         build/flex/obj/app/src/nbgl/ui_safe_account.o:(.bss..L_MergedGlobals)
da7a4cd8 da7a4cd8       10     1                 .L_MergedGlobals
da7a4cd8 da7a4cd8        4     1                 extensions
da7a4cdc da7a4cdc        4     1                 tagValueList
da7a4ce0 da7a4ce0        4     1                 tagValuePairs
da7a4ce4 da7a4ce4        4     1                 signersInfo
da7a4ce8 da7a4ce8        1     1         build/flex/obj/app/src/nbgl/ui_tx_simulation.o:(.bss.g_response_expected)
da7a4ce8 da7a4ce8        1     1                 g_response_expected
da7a4cec da7a4cec        4     4         build/flex/obj/app/src/nbgl/ui_utils.o:(.bss.g_pairs)
da7a4cec da7a4cec        4     1                 g_pairs
da7a4cf0 da7a4cf0        4     4         build/flex/obj/app/src/nbgl/ui_utils.o:(.bss.g_pairsList)
da7a4cf0 da7a4cf0        4     1                 g_pairsList
da7a4cf4 da7a4cf4        4     4         build/flex/obj/app/src/nbgl/ui_utils.o:(.bss.g_titleMsg)
da7a4cf4 da7a4cf4        4     1                 g_titleMsg
da7a4cf8 da7a4cf8        4     4         build/flex/obj/app/src/nbgl/ui_utils.o:(.bss.g_subTitleMsg)
da7a4cf8 da7a4cf8        4     1                 g_subTitleMsg
da7a4cfc da7a4cfc        4     4         build/flex/obj/app/src/nbgl/ui_utils.o:(.bss.g_finishMsg)
da7a4cfc da7a4cfc        4     1                 g_finishMsg
da7a4d00 da7a4d00        8     4         build/flex/obj/app/src/tlv_apdu.o:(.bss..L_MergedGlobals)
da7a4d00 da7a4d00        8     1                 .L_MergedGlobals
da7a4d00 da7a4d00        2     1                 g_tlv_size
da7a4d02 da7a4d02        2     1                 g_tlv_pos
da7a4d04 da7a4d04        4     1                 g_tlv_payload
da7a4d08 da7a4d08      111     1         build/flex/obj/sdk/io/src/os_io.o:(.bss.G_io_tx_buffer)
da7a4d08 da7a4d08      111     1                 G_io_tx_buffer
da7a4e19 da7a4e19      111     1         build/flex/obj/sdk/io/src/os_io.o:(.bss.G_io_rx_buffer)
da7a4e19 da7a4e19      111     1                 G_io_rx_buffer
da7a4f2c da7a4f2c        c     4         build/flex/obj/sdk/io_legacy/src/os_io_legacy.o:(.bss.G_io_app)
da7a4f2c da7a4f2c        c     1                 G_io_app
da7a4f38 da7a4f38        2     1         build/flex/obj/sdk/io_legacy/src/os_io_legacy.o:(.bss..L_MergedGlobals)
da7a4f38 da7a4f38        2     1                 .L_MergedGlobals
da7a4f38 da7a4f38        1     1                 need_to_start_io
da7a4f39 da7a4f39        1     1                 io_os_legacy_apdu_type
da7a4f3c da7a4f3c      21c     4         build/flex/obj/sdk/lib_nbgl/src/nbgl_layout.o:(.bss.gLayout)
da7a4f3c da7a4f3c      21c     1                 gLayout
da7a5158 da7a5158        8     4         build/flex/obj/sdk/lib_nbgl/src/nbgl_layout.o:(.bss..L_MergedGlobals)
da7a5158 da7a5158        8     1                 .L_MergedGlobals
da7a5158 da7a5158        1     1                 nbTouchableControls
da7a515c da7a515c        4     1                 topLayout
da7a5160 da7a5160        b     1         build/flex/obj/sdk/lib_nbgl/src/nbgl_layout_navigation.o:(.bss.navText)
da7a5160 da7a5160        b     1                 navText
da7a516c da7a516c       90     4         build/flex/obj/sdk/lib_nbgl/src/nbgl_use_case.o:(.bss.genericContext)
da7a516c da7a516c       90     1                 genericContext
da7a51fc da7a51fc       a8     4         build/flex/obj/sdk/lib_nbgl/src/nbgl_use_case.o:(.bss.localContentsList)
da7a51fc da7a51fc       a8     1                 localContentsList
da7a52a4 da7a52a4       80     4         build/flex/obj/sdk/lib_nbgl/src/nbgl_use_case.o:(.bss.tmpString)
da7a52a4 da7a52a4       80     1                 tmpString
da7a5324 da7a5324       80     1         build/flex/obj/sdk/lib_nbgl/src/nbgl_use_case.o:(.bss.genericContextPagesInfo)
da7a5324 da7a5324       80     1                 genericContextPagesInfo
da7a53a4 da7a53a4       80     1         build/flex/obj/sdk/lib_nbgl/src/nbgl_use_case.o:(.bss.reducedAddress)
da7a53a4 da7a53a4       80     1                 reducedAddress
da7a5424 da7a5424       7c     4         build/flex/obj/sdk/lib_nbgl/src/nbgl_use_case.o:(.bss..L_MergedGlobals)
da7a5424 da7a5424       7c     1                 .L_MergedGlobals
da7a5424 da7a5424        1     1                 navType
da7a5428 da7a5428        4     1                 onQuit
da7a542c da7a542c        4     1                 onNav
da7a5430 da7a5430        4     1                 onControls
da7a5434 da7a5434        4     1                 pageTitle
da7a5438 da7a5438        4     1                 pageContext
da7a543c da7a543c        4     1                 onChoice
da7a5440 da7a5440        4     1                 onModalConfirm
da7a5444 da7a5444        4     1                 modalPageContext
da7a5448 da7a5448        4     1                 onAction
da7a544c da7a544c        4     1                 onContinue
da7a5450 da7a5450        4     1                 onContentAction
da7a5454 da7a5454       10     1                 detailsContext
da7a5464 da7a5464       10     1                 displayDetailsPage.currentPair
da7a5474 da7a5474       10     1                 modalContextPagesInfo
da7a5484 da7a5484       1c     1                 navInfo
da7a54a0 da7a54a0       60     4         build/flex/obj/sdk/lib_nbgl/src/nbgl_use_case.o:(.bss..L_MergedGlobals.77)
da7a54a0 da7a54a0       60     1                 .L_MergedGlobals.77
da7a54a0 da7a54a0       28     1                 bundleNavContext
da7a54c8 da7a54c8       38     1                 addressConfirmationContext
da7a5500 da7a5500      110     1         build/flex/obj/sdk/lib_standard_app/io.o:(.bss.G_io_seproxyhal_spi_buffer)
da7a5500 da7a5500      110     1                 G_io_seproxyhal_spi_buffer
da7a5610 da7a5610        1     1         build/flex/obj/sdk/lib_standard_app/io.o:(.bss.need_to_start_io)
da7a5610 da7a5610        1     1                 need_to_start_io
da7a5614 da7a5614       20     4         build/flex/obj/sdk/lib_standard_app/main.o:(.bss.G_ux_params)
da7a5614 da7a5614       20     1                 G_ux_params
da7a5634 da7a5634        1     1         build/flex/obj/sdk/lib_standard_app/swap_utils.o:(.bss.G_called_from_swap)
da7a5634 da7a5634        1     1                 G_called_from_swap
da7a5635 da7a5635        1     1         build/flex/obj/sdk/lib_standard_app/swap_utils.o:(.bss.G_swap_response_ready)
da7a5635 da7a5635        1     1                 G_swap_response_ready
da7a5638 da7a5638        4     4         build/flex/obj/sdk/lib_standard_app/swap_utils.o:(.bss.G_swap_signing_return_value_address)
da7a5638 da7a5638        4     1                 G_swap_signing_return_value_address
da7a563c da7a563c        1     1         build/flex/obj/sdk/lib_u2f_legacy/src/u2f_legacy.o:(.bss.G_io_u2f)
da7a563c da7a563c        1     1                 G_io_u2f
da7a5640 da7a5640        a     4         build/flex/obj/sdk/lib_ux_nbgl/ux.o:(.bss..L_MergedGlobals)
da7a5640 da7a5640        a     1                 .L_MergedGlobals
da7a5640 da7a5640        4     1                 nbTicks
da7a5644 da7a5644        6     1                 pos
da7a564a da7a564a        0     1         _ebss = .
da7a564a da7a564a        2     1         . = ALIGN ( 4 )
da7a564c da7a564c        0     1         app_stack_canary = .
da7a564c da7a564c        4     1         . += 4
da7a5650 da7a5650        0     1         _stack = .
da7a5650 da7a5650        0     1         _estack = ABSOLUTE ( END_STACK )
da7a5650 da7a5650        0     1 
d0000000 d0000000       10     4 DEBUG
d0000000 d0000000       10     4         <internal>:(.ARM.exidx)
       0        0       5d     1 .comment
       0        0       5d     1         <internal>:(.comment)
       0        0        4     1 ledger.target
       0        0        4     1         build/flex/obj/sdk/src/app_metadata.o:(ledger.target)
       0        0        4     1                 target
       0        0        b     1 ledger.target_name
       0        0        b     1         build/flex/obj/sdk/src/app_metadata.o:(ledger.target_name)
       0        0        b     1                 target_name
       0        0        a     1 ledger.target_id
       0        0        a     1         build/flex/obj/sdk/src/app_metadata.o:(ledger.target_id)
       0        0        a     1                 target_id
       0        0        8     1 ledger.app_name
       0        0        8     1         build/flex/obj/sdk/src/app_metadata.o:(ledger.app_name)
       0        0        8     1                 app_name
       0        0        a     1 ledger.app_version
       0        0        a     1         build/flex/obj/sdk/src/app_metadata.o:(ledger.app_version)
       0        0        a     1                 app_version
       0        0        2     1 ledger.api_level
       0        0        2     1         build/flex/obj/sdk/src/app_metadata.o:(ledger.api_level)
       0        0        2     1                 api_level
       0        0       11     1 ledger.sdk_name
       0        0       11     1         build/flex/obj/sdk/src/app_metadata.o:(ledger.sdk_name)
       0        0       11     1                 sdk_name
       0        0        8     1 ledger.sdk_version
       0        0        8     1         build/flex/obj/sdk/src/app_metadata.o:(ledger.sdk_version)
       0        0        8     1                 sdk_version
       0        0       28     1 ledger.sdk_hash
       0        0       28     1         build/flex/obj/sdk/src/app_metadata.o:(ledger.sdk_hash)
       0        0       28     1                 sdk_hash
       0        0        4     1 ledger.sdk_graphics
       0        0        4     1         build/flex/obj/sdk/src/app_metadata.o:(ledger.sdk_graphics)
       0        0        4     1                 sdk_graphics
       0        0        5     1 ledger.app_flags
       0        0        5     1         build/flex/obj/sdk/src/app_metadata.o:(ledger.app_flags)
       0        0        5     1                 app_flags
d0000010 d0000010        0     1 PROVIDE ( _nvram = ABSOLUTE ( _nvram_start ) )
d0000010 d0000010        0     1 PROVIDE ( _envram = ABSOLUTE ( _nvram_end ) )
       0        0       45     1 .ARM.attributes
       0        0       45     1         build/flex/gen_src/glyphs.o:(.ARM.attributes)
       0        0     c4e0     4 .symtab
       0        0     c4e0     4         <internal>:(.symtab)
       0        0      109     1 .shstrtab
       0        0      109     1         <internal>:(.shstrtab)
       0        0     9c6f     1 .strtab
       0        0     9c6f     1         <internal>:(.strtab)
